
EXTIO.elf:     file format elf32-littlearm

Sections:
Idx Name          Size      VMA       LMA       File off  Algn
  0 .isr_vector   000000c0  08001000  08001000  00001000  2**0
                  CONTENTS, ALLOC, LOAD, READONLY, DATA
  1 .text         00002794  080010c0  080010c0  000010c0  2**2
                  CONTENTS, ALLOC, LOAD, READONLY, CODE
  2 .rodata       00000000  08003854  08003854  00010184  2**0
                  CONTENTS, ALLOC, LOAD, DATA
  3 .ARM.extab    00000000  08003854  08003854  00010184  2**0
                  CONTENTS
  4 .ARM          00000000  08003854  08003854  00010184  2**0
                  CONTENTS
  5 .preinit_array 00000000  08003854  08003854  00010184  2**0
                  CONTENTS, ALLOC, LOAD, DATA
  6 .init_array   00000004  08003854  08003854  00003854  2**2
                  CONTENTS, ALLOC, LOAD, DATA
  7 .fini_array   00000004  08003858  08003858  00003858  2**2
                  CONTENTS, ALLOC, LOAD, DATA
  8 .data         000000c4  200000c0  0800385c  000100c0  2**2
                  CONTENTS, ALLOC, LOAD, DATA
  9 .bss          00000690  20000188  08003920  00010188  2**3
                  ALLOC
 10 ._user_heap_stack 00000600  20000818  08003920  00010818  2**0
                  ALLOC
 11 .ARM.attributes 00000028  00000000  00000000  00010184  2**0
                  CONTENTS, READONLY
 12 .comment      00000050  00000000  00000000  000101ac  2**0
                  CONTENTS, READONLY
 13 .debug_frame  000002dc  00000000  00000000  000101fc  2**2
                  CONTENTS, READONLY, DEBUGGING, OCTETS

Disassembly of section .text:

080010c0 <__do_global_dtors_aux>:
 80010c0:	b510      	push	{r4, lr}
 80010c2:	4c06      	ldr	r4, [pc, #24]	; (80010dc <__do_global_dtors_aux+0x1c>)
 80010c4:	7823      	ldrb	r3, [r4, #0]
 80010c6:	2b00      	cmp	r3, #0
 80010c8:	d107      	bne.n	80010da <__do_global_dtors_aux+0x1a>
 80010ca:	4b05      	ldr	r3, [pc, #20]	; (80010e0 <__do_global_dtors_aux+0x20>)
 80010cc:	2b00      	cmp	r3, #0
 80010ce:	d002      	beq.n	80010d6 <__do_global_dtors_aux+0x16>
 80010d0:	4804      	ldr	r0, [pc, #16]	; (80010e4 <__do_global_dtors_aux+0x24>)
 80010d2:	e000      	b.n	80010d6 <__do_global_dtors_aux+0x16>
 80010d4:	bf00      	nop
 80010d6:	2301      	movs	r3, #1
 80010d8:	7023      	strb	r3, [r4, #0]
 80010da:	bd10      	pop	{r4, pc}
 80010dc:	20000188 	.word	0x20000188
 80010e0:	00000000 	.word	0x00000000
 80010e4:	0800383c 	.word	0x0800383c

080010e8 <frame_dummy>:
 80010e8:	4b04      	ldr	r3, [pc, #16]	; (80010fc <frame_dummy+0x14>)
 80010ea:	b510      	push	{r4, lr}
 80010ec:	2b00      	cmp	r3, #0
 80010ee:	d003      	beq.n	80010f8 <frame_dummy+0x10>
 80010f0:	4903      	ldr	r1, [pc, #12]	; (8001100 <frame_dummy+0x18>)
 80010f2:	4804      	ldr	r0, [pc, #16]	; (8001104 <frame_dummy+0x1c>)
 80010f4:	e000      	b.n	80010f8 <frame_dummy+0x10>
 80010f6:	bf00      	nop
 80010f8:	bd10      	pop	{r4, pc}
 80010fa:	46c0      	nop			; (mov r8, r8)
 80010fc:	00000000 	.word	0x00000000
 8001100:	2000018c 	.word	0x2000018c
 8001104:	0800383c 	.word	0x0800383c

08001108 <__gnu_thumb1_case_uqi>:
 8001108:	b402      	push	{r1}
 800110a:	4671      	mov	r1, lr
 800110c:	0849      	lsrs	r1, r1, #1
 800110e:	0049      	lsls	r1, r1, #1
 8001110:	5c09      	ldrb	r1, [r1, r0]
 8001112:	0049      	lsls	r1, r1, #1
 8001114:	448e      	add	lr, r1
 8001116:	bc02      	pop	{r1}
 8001118:	4770      	bx	lr
 800111a:	46c0      	nop			; (mov r8, r8)

0800111c <__udivsi3>:
 800111c:	2200      	movs	r2, #0
 800111e:	0843      	lsrs	r3, r0, #1
 8001120:	428b      	cmp	r3, r1
 8001122:	d374      	bcc.n	800120e <__udivsi3+0xf2>
 8001124:	0903      	lsrs	r3, r0, #4
 8001126:	428b      	cmp	r3, r1
 8001128:	d35f      	bcc.n	80011ea <__udivsi3+0xce>
 800112a:	0a03      	lsrs	r3, r0, #8
 800112c:	428b      	cmp	r3, r1
 800112e:	d344      	bcc.n	80011ba <__udivsi3+0x9e>
 8001130:	0b03      	lsrs	r3, r0, #12
 8001132:	428b      	cmp	r3, r1
 8001134:	d328      	bcc.n	8001188 <__udivsi3+0x6c>
 8001136:	0c03      	lsrs	r3, r0, #16
 8001138:	428b      	cmp	r3, r1
 800113a:	d30d      	bcc.n	8001158 <__udivsi3+0x3c>
 800113c:	22ff      	movs	r2, #255	; 0xff
 800113e:	0209      	lsls	r1, r1, #8
 8001140:	ba12      	rev	r2, r2
 8001142:	0c03      	lsrs	r3, r0, #16
 8001144:	428b      	cmp	r3, r1
 8001146:	d302      	bcc.n	800114e <__udivsi3+0x32>
 8001148:	1212      	asrs	r2, r2, #8
 800114a:	0209      	lsls	r1, r1, #8
 800114c:	d065      	beq.n	800121a <__udivsi3+0xfe>
 800114e:	0b03      	lsrs	r3, r0, #12
 8001150:	428b      	cmp	r3, r1
 8001152:	d319      	bcc.n	8001188 <__udivsi3+0x6c>
 8001154:	e000      	b.n	8001158 <__udivsi3+0x3c>
 8001156:	0a09      	lsrs	r1, r1, #8
 8001158:	0bc3      	lsrs	r3, r0, #15
 800115a:	428b      	cmp	r3, r1
 800115c:	d301      	bcc.n	8001162 <__udivsi3+0x46>
 800115e:	03cb      	lsls	r3, r1, #15
 8001160:	1ac0      	subs	r0, r0, r3
 8001162:	4152      	adcs	r2, r2
 8001164:	0b83      	lsrs	r3, r0, #14
 8001166:	428b      	cmp	r3, r1
 8001168:	d301      	bcc.n	800116e <__udivsi3+0x52>
 800116a:	038b      	lsls	r3, r1, #14
 800116c:	1ac0      	subs	r0, r0, r3
 800116e:	4152      	adcs	r2, r2
 8001170:	0b43      	lsrs	r3, r0, #13
 8001172:	428b      	cmp	r3, r1
 8001174:	d301      	bcc.n	800117a <__udivsi3+0x5e>
 8001176:	034b      	lsls	r3, r1, #13
 8001178:	1ac0      	subs	r0, r0, r3
 800117a:	4152      	adcs	r2, r2
 800117c:	0b03      	lsrs	r3, r0, #12
 800117e:	428b      	cmp	r3, r1
 8001180:	d301      	bcc.n	8001186 <__udivsi3+0x6a>
 8001182:	030b      	lsls	r3, r1, #12
 8001184:	1ac0      	subs	r0, r0, r3
 8001186:	4152      	adcs	r2, r2
 8001188:	0ac3      	lsrs	r3, r0, #11
 800118a:	428b      	cmp	r3, r1
 800118c:	d301      	bcc.n	8001192 <__udivsi3+0x76>
 800118e:	02cb      	lsls	r3, r1, #11
 8001190:	1ac0      	subs	r0, r0, r3
 8001192:	4152      	adcs	r2, r2
 8001194:	0a83      	lsrs	r3, r0, #10
 8001196:	428b      	cmp	r3, r1
 8001198:	d301      	bcc.n	800119e <__udivsi3+0x82>
 800119a:	028b      	lsls	r3, r1, #10
 800119c:	1ac0      	subs	r0, r0, r3
 800119e:	4152      	adcs	r2, r2
 80011a0:	0a43      	lsrs	r3, r0, #9
 80011a2:	428b      	cmp	r3, r1
 80011a4:	d301      	bcc.n	80011aa <__udivsi3+0x8e>
 80011a6:	024b      	lsls	r3, r1, #9
 80011a8:	1ac0      	subs	r0, r0, r3
 80011aa:	4152      	adcs	r2, r2
 80011ac:	0a03      	lsrs	r3, r0, #8
 80011ae:	428b      	cmp	r3, r1
 80011b0:	d301      	bcc.n	80011b6 <__udivsi3+0x9a>
 80011b2:	020b      	lsls	r3, r1, #8
 80011b4:	1ac0      	subs	r0, r0, r3
 80011b6:	4152      	adcs	r2, r2
 80011b8:	d2cd      	bcs.n	8001156 <__udivsi3+0x3a>
 80011ba:	09c3      	lsrs	r3, r0, #7
 80011bc:	428b      	cmp	r3, r1
 80011be:	d301      	bcc.n	80011c4 <__udivsi3+0xa8>
 80011c0:	01cb      	lsls	r3, r1, #7
 80011c2:	1ac0      	subs	r0, r0, r3
 80011c4:	4152      	adcs	r2, r2
 80011c6:	0983      	lsrs	r3, r0, #6
 80011c8:	428b      	cmp	r3, r1
 80011ca:	d301      	bcc.n	80011d0 <__udivsi3+0xb4>
 80011cc:	018b      	lsls	r3, r1, #6
 80011ce:	1ac0      	subs	r0, r0, r3
 80011d0:	4152      	adcs	r2, r2
 80011d2:	0943      	lsrs	r3, r0, #5
 80011d4:	428b      	cmp	r3, r1
 80011d6:	d301      	bcc.n	80011dc <__udivsi3+0xc0>
 80011d8:	014b      	lsls	r3, r1, #5
 80011da:	1ac0      	subs	r0, r0, r3
 80011dc:	4152      	adcs	r2, r2
 80011de:	0903      	lsrs	r3, r0, #4
 80011e0:	428b      	cmp	r3, r1
 80011e2:	d301      	bcc.n	80011e8 <__udivsi3+0xcc>
 80011e4:	010b      	lsls	r3, r1, #4
 80011e6:	1ac0      	subs	r0, r0, r3
 80011e8:	4152      	adcs	r2, r2
 80011ea:	08c3      	lsrs	r3, r0, #3
 80011ec:	428b      	cmp	r3, r1
 80011ee:	d301      	bcc.n	80011f4 <__udivsi3+0xd8>
 80011f0:	00cb      	lsls	r3, r1, #3
 80011f2:	1ac0      	subs	r0, r0, r3
 80011f4:	4152      	adcs	r2, r2
 80011f6:	0883      	lsrs	r3, r0, #2
 80011f8:	428b      	cmp	r3, r1
 80011fa:	d301      	bcc.n	8001200 <__udivsi3+0xe4>
 80011fc:	008b      	lsls	r3, r1, #2
 80011fe:	1ac0      	subs	r0, r0, r3
 8001200:	4152      	adcs	r2, r2
 8001202:	0843      	lsrs	r3, r0, #1
 8001204:	428b      	cmp	r3, r1
 8001206:	d301      	bcc.n	800120c <__udivsi3+0xf0>
 8001208:	004b      	lsls	r3, r1, #1
 800120a:	1ac0      	subs	r0, r0, r3
 800120c:	4152      	adcs	r2, r2
 800120e:	1a41      	subs	r1, r0, r1
 8001210:	d200      	bcs.n	8001214 <__udivsi3+0xf8>
 8001212:	4601      	mov	r1, r0
 8001214:	4152      	adcs	r2, r2
 8001216:	4610      	mov	r0, r2
 8001218:	4770      	bx	lr
 800121a:	e7ff      	b.n	800121c <__udivsi3+0x100>
 800121c:	b501      	push	{r0, lr}
 800121e:	2000      	movs	r0, #0
 8001220:	f000 f8f0 	bl	8001404 <__aeabi_idiv0>
 8001224:	bd02      	pop	{r1, pc}
 8001226:	46c0      	nop			; (mov r8, r8)

08001228 <__aeabi_uidivmod>:
 8001228:	2900      	cmp	r1, #0
 800122a:	d0f7      	beq.n	800121c <__udivsi3+0x100>
 800122c:	e776      	b.n	800111c <__udivsi3>
 800122e:	4770      	bx	lr

08001230 <__divsi3>:
 8001230:	4603      	mov	r3, r0
 8001232:	430b      	orrs	r3, r1
 8001234:	d47f      	bmi.n	8001336 <__divsi3+0x106>
 8001236:	2200      	movs	r2, #0
 8001238:	0843      	lsrs	r3, r0, #1
 800123a:	428b      	cmp	r3, r1
 800123c:	d374      	bcc.n	8001328 <__divsi3+0xf8>
 800123e:	0903      	lsrs	r3, r0, #4
 8001240:	428b      	cmp	r3, r1
 8001242:	d35f      	bcc.n	8001304 <__divsi3+0xd4>
 8001244:	0a03      	lsrs	r3, r0, #8
 8001246:	428b      	cmp	r3, r1
 8001248:	d344      	bcc.n	80012d4 <__divsi3+0xa4>
 800124a:	0b03      	lsrs	r3, r0, #12
 800124c:	428b      	cmp	r3, r1
 800124e:	d328      	bcc.n	80012a2 <__divsi3+0x72>
 8001250:	0c03      	lsrs	r3, r0, #16
 8001252:	428b      	cmp	r3, r1
 8001254:	d30d      	bcc.n	8001272 <__divsi3+0x42>
 8001256:	22ff      	movs	r2, #255	; 0xff
 8001258:	0209      	lsls	r1, r1, #8
 800125a:	ba12      	rev	r2, r2
 800125c:	0c03      	lsrs	r3, r0, #16
 800125e:	428b      	cmp	r3, r1
 8001260:	d302      	bcc.n	8001268 <__divsi3+0x38>
 8001262:	1212      	asrs	r2, r2, #8
 8001264:	0209      	lsls	r1, r1, #8
 8001266:	d065      	beq.n	8001334 <__divsi3+0x104>
 8001268:	0b03      	lsrs	r3, r0, #12
 800126a:	428b      	cmp	r3, r1
 800126c:	d319      	bcc.n	80012a2 <__divsi3+0x72>
 800126e:	e000      	b.n	8001272 <__divsi3+0x42>
 8001270:	0a09      	lsrs	r1, r1, #8
 8001272:	0bc3      	lsrs	r3, r0, #15
 8001274:	428b      	cmp	r3, r1
 8001276:	d301      	bcc.n	800127c <__divsi3+0x4c>
 8001278:	03cb      	lsls	r3, r1, #15
 800127a:	1ac0      	subs	r0, r0, r3
 800127c:	4152      	adcs	r2, r2
 800127e:	0b83      	lsrs	r3, r0, #14
 8001280:	428b      	cmp	r3, r1
 8001282:	d301      	bcc.n	8001288 <__divsi3+0x58>
 8001284:	038b      	lsls	r3, r1, #14
 8001286:	1ac0      	subs	r0, r0, r3
 8001288:	4152      	adcs	r2, r2
 800128a:	0b43      	lsrs	r3, r0, #13
 800128c:	428b      	cmp	r3, r1
 800128e:	d301      	bcc.n	8001294 <__divsi3+0x64>
 8001290:	034b      	lsls	r3, r1, #13
 8001292:	1ac0      	subs	r0, r0, r3
 8001294:	4152      	adcs	r2, r2
 8001296:	0b03      	lsrs	r3, r0, #12
 8001298:	428b      	cmp	r3, r1
 800129a:	d301      	bcc.n	80012a0 <__divsi3+0x70>
 800129c:	030b      	lsls	r3, r1, #12
 800129e:	1ac0      	subs	r0, r0, r3
 80012a0:	4152      	adcs	r2, r2
 80012a2:	0ac3      	lsrs	r3, r0, #11
 80012a4:	428b      	cmp	r3, r1
 80012a6:	d301      	bcc.n	80012ac <__divsi3+0x7c>
 80012a8:	02cb      	lsls	r3, r1, #11
 80012aa:	1ac0      	subs	r0, r0, r3
 80012ac:	4152      	adcs	r2, r2
 80012ae:	0a83      	lsrs	r3, r0, #10
 80012b0:	428b      	cmp	r3, r1
 80012b2:	d301      	bcc.n	80012b8 <__divsi3+0x88>
 80012b4:	028b      	lsls	r3, r1, #10
 80012b6:	1ac0      	subs	r0, r0, r3
 80012b8:	4152      	adcs	r2, r2
 80012ba:	0a43      	lsrs	r3, r0, #9
 80012bc:	428b      	cmp	r3, r1
 80012be:	d301      	bcc.n	80012c4 <__divsi3+0x94>
 80012c0:	024b      	lsls	r3, r1, #9
 80012c2:	1ac0      	subs	r0, r0, r3
 80012c4:	4152      	adcs	r2, r2
 80012c6:	0a03      	lsrs	r3, r0, #8
 80012c8:	428b      	cmp	r3, r1
 80012ca:	d301      	bcc.n	80012d0 <__divsi3+0xa0>
 80012cc:	020b      	lsls	r3, r1, #8
 80012ce:	1ac0      	subs	r0, r0, r3
 80012d0:	4152      	adcs	r2, r2
 80012d2:	d2cd      	bcs.n	8001270 <__divsi3+0x40>
 80012d4:	09c3      	lsrs	r3, r0, #7
 80012d6:	428b      	cmp	r3, r1
 80012d8:	d301      	bcc.n	80012de <__divsi3+0xae>
 80012da:	01cb      	lsls	r3, r1, #7
 80012dc:	1ac0      	subs	r0, r0, r3
 80012de:	4152      	adcs	r2, r2
 80012e0:	0983      	lsrs	r3, r0, #6
 80012e2:	428b      	cmp	r3, r1
 80012e4:	d301      	bcc.n	80012ea <__divsi3+0xba>
 80012e6:	018b      	lsls	r3, r1, #6
 80012e8:	1ac0      	subs	r0, r0, r3
 80012ea:	4152      	adcs	r2, r2
 80012ec:	0943      	lsrs	r3, r0, #5
 80012ee:	428b      	cmp	r3, r1
 80012f0:	d301      	bcc.n	80012f6 <__divsi3+0xc6>
 80012f2:	014b      	lsls	r3, r1, #5
 80012f4:	1ac0      	subs	r0, r0, r3
 80012f6:	4152      	adcs	r2, r2
 80012f8:	0903      	lsrs	r3, r0, #4
 80012fa:	428b      	cmp	r3, r1
 80012fc:	d301      	bcc.n	8001302 <__divsi3+0xd2>
 80012fe:	010b      	lsls	r3, r1, #4
 8001300:	1ac0      	subs	r0, r0, r3
 8001302:	4152      	adcs	r2, r2
 8001304:	08c3      	lsrs	r3, r0, #3
 8001306:	428b      	cmp	r3, r1
 8001308:	d301      	bcc.n	800130e <__divsi3+0xde>
 800130a:	00cb      	lsls	r3, r1, #3
 800130c:	1ac0      	subs	r0, r0, r3
 800130e:	4152      	adcs	r2, r2
 8001310:	0883      	lsrs	r3, r0, #2
 8001312:	428b      	cmp	r3, r1
 8001314:	d301      	bcc.n	800131a <__divsi3+0xea>
 8001316:	008b      	lsls	r3, r1, #2
 8001318:	1ac0      	subs	r0, r0, r3
 800131a:	4152      	adcs	r2, r2
 800131c:	0843      	lsrs	r3, r0, #1
 800131e:	428b      	cmp	r3, r1
 8001320:	d301      	bcc.n	8001326 <__divsi3+0xf6>
 8001322:	004b      	lsls	r3, r1, #1
 8001324:	1ac0      	subs	r0, r0, r3
 8001326:	4152      	adcs	r2, r2
 8001328:	1a41      	subs	r1, r0, r1
 800132a:	d200      	bcs.n	800132e <__divsi3+0xfe>
 800132c:	4601      	mov	r1, r0
 800132e:	4152      	adcs	r2, r2
 8001330:	4610      	mov	r0, r2
 8001332:	4770      	bx	lr
 8001334:	e05d      	b.n	80013f2 <__divsi3+0x1c2>
 8001336:	0fca      	lsrs	r2, r1, #31
 8001338:	d000      	beq.n	800133c <__divsi3+0x10c>
 800133a:	4249      	negs	r1, r1
 800133c:	1003      	asrs	r3, r0, #32
 800133e:	d300      	bcc.n	8001342 <__divsi3+0x112>
 8001340:	4240      	negs	r0, r0
 8001342:	4053      	eors	r3, r2
 8001344:	2200      	movs	r2, #0
 8001346:	469c      	mov	ip, r3
 8001348:	0903      	lsrs	r3, r0, #4
 800134a:	428b      	cmp	r3, r1
 800134c:	d32d      	bcc.n	80013aa <__divsi3+0x17a>
 800134e:	0a03      	lsrs	r3, r0, #8
 8001350:	428b      	cmp	r3, r1
 8001352:	d312      	bcc.n	800137a <__divsi3+0x14a>
 8001354:	22fc      	movs	r2, #252	; 0xfc
 8001356:	0189      	lsls	r1, r1, #6
 8001358:	ba12      	rev	r2, r2
 800135a:	0a03      	lsrs	r3, r0, #8
 800135c:	428b      	cmp	r3, r1
 800135e:	d30c      	bcc.n	800137a <__divsi3+0x14a>
 8001360:	0189      	lsls	r1, r1, #6
 8001362:	1192      	asrs	r2, r2, #6
 8001364:	428b      	cmp	r3, r1
 8001366:	d308      	bcc.n	800137a <__divsi3+0x14a>
 8001368:	0189      	lsls	r1, r1, #6
 800136a:	1192      	asrs	r2, r2, #6
 800136c:	428b      	cmp	r3, r1
 800136e:	d304      	bcc.n	800137a <__divsi3+0x14a>
 8001370:	0189      	lsls	r1, r1, #6
 8001372:	d03a      	beq.n	80013ea <__divsi3+0x1ba>
 8001374:	1192      	asrs	r2, r2, #6
 8001376:	e000      	b.n	800137a <__divsi3+0x14a>
 8001378:	0989      	lsrs	r1, r1, #6
 800137a:	09c3      	lsrs	r3, r0, #7
 800137c:	428b      	cmp	r3, r1
 800137e:	d301      	bcc.n	8001384 <__divsi3+0x154>
 8001380:	01cb      	lsls	r3, r1, #7
 8001382:	1ac0      	subs	r0, r0, r3
 8001384:	4152      	adcs	r2, r2
 8001386:	0983      	lsrs	r3, r0, #6
 8001388:	428b      	cmp	r3, r1
 800138a:	d301      	bcc.n	8001390 <__divsi3+0x160>
 800138c:	018b      	lsls	r3, r1, #6
 800138e:	1ac0      	subs	r0, r0, r3
 8001390:	4152      	adcs	r2, r2
 8001392:	0943      	lsrs	r3, r0, #5
 8001394:	428b      	cmp	r3, r1
 8001396:	d301      	bcc.n	800139c <__divsi3+0x16c>
 8001398:	014b      	lsls	r3, r1, #5
 800139a:	1ac0      	subs	r0, r0, r3
 800139c:	4152      	adcs	r2, r2
 800139e:	0903      	lsrs	r3, r0, #4
 80013a0:	428b      	cmp	r3, r1
 80013a2:	d301      	bcc.n	80013a8 <__divsi3+0x178>
 80013a4:	010b      	lsls	r3, r1, #4
 80013a6:	1ac0      	subs	r0, r0, r3
 80013a8:	4152      	adcs	r2, r2
 80013aa:	08c3      	lsrs	r3, r0, #3
 80013ac:	428b      	cmp	r3, r1
 80013ae:	d301      	bcc.n	80013b4 <__divsi3+0x184>
 80013b0:	00cb      	lsls	r3, r1, #3
 80013b2:	1ac0      	subs	r0, r0, r3
 80013b4:	4152      	adcs	r2, r2
 80013b6:	0883      	lsrs	r3, r0, #2
 80013b8:	428b      	cmp	r3, r1
 80013ba:	d301      	bcc.n	80013c0 <__divsi3+0x190>
 80013bc:	008b      	lsls	r3, r1, #2
 80013be:	1ac0      	subs	r0, r0, r3
 80013c0:	4152      	adcs	r2, r2
 80013c2:	d2d9      	bcs.n	8001378 <__divsi3+0x148>
 80013c4:	0843      	lsrs	r3, r0, #1
 80013c6:	428b      	cmp	r3, r1
 80013c8:	d301      	bcc.n	80013ce <__divsi3+0x19e>
 80013ca:	004b      	lsls	r3, r1, #1
 80013cc:	1ac0      	subs	r0, r0, r3
 80013ce:	4152      	adcs	r2, r2
 80013d0:	1a41      	subs	r1, r0, r1
 80013d2:	d200      	bcs.n	80013d6 <__divsi3+0x1a6>
 80013d4:	4601      	mov	r1, r0
 80013d6:	4663      	mov	r3, ip
 80013d8:	4152      	adcs	r2, r2
 80013da:	105b      	asrs	r3, r3, #1
 80013dc:	4610      	mov	r0, r2
 80013de:	d301      	bcc.n	80013e4 <__divsi3+0x1b4>
 80013e0:	4240      	negs	r0, r0
 80013e2:	2b00      	cmp	r3, #0
 80013e4:	d500      	bpl.n	80013e8 <__divsi3+0x1b8>
 80013e6:	4249      	negs	r1, r1
 80013e8:	4770      	bx	lr
 80013ea:	4663      	mov	r3, ip
 80013ec:	105b      	asrs	r3, r3, #1
 80013ee:	d300      	bcc.n	80013f2 <__divsi3+0x1c2>
 80013f0:	4240      	negs	r0, r0
 80013f2:	b501      	push	{r0, lr}
 80013f4:	2000      	movs	r0, #0
 80013f6:	f000 f805 	bl	8001404 <__aeabi_idiv0>
 80013fa:	bd02      	pop	{r1, pc}

080013fc <__aeabi_idivmod>:
 80013fc:	2900      	cmp	r1, #0
 80013fe:	d0f8      	beq.n	80013f2 <__divsi3+0x1c2>
 8001400:	e716      	b.n	8001230 <__divsi3>
 8001402:	4770      	bx	lr

08001404 <__aeabi_idiv0>:
 8001404:	4770      	bx	lr
 8001406:	46c0      	nop			; (mov r8, r8)

08001408 <__aeabi_llsr>:
 8001408:	40d0      	lsrs	r0, r2
 800140a:	000b      	movs	r3, r1
 800140c:	40d1      	lsrs	r1, r2
 800140e:	469c      	mov	ip, r3
 8001410:	3a20      	subs	r2, #32
 8001412:	40d3      	lsrs	r3, r2
 8001414:	4318      	orrs	r0, r3
 8001416:	4252      	negs	r2, r2
 8001418:	4663      	mov	r3, ip
 800141a:	4093      	lsls	r3, r2
 800141c:	4318      	orrs	r0, r3
 800141e:	4770      	bx	lr

08001420 <SteerInit>:
 8001420:	2201      	movs	r2, #1
 8001422:	2300      	movs	r3, #0
 8001424:	20ff      	movs	r0, #255	; 0xff
 8001426:	b570      	push	{r4, r5, r6, lr}
 8001428:	4e07      	ldr	r6, [pc, #28]	; (8001448 <SteerInit+0x28>)
 800142a:	4d08      	ldr	r5, [pc, #32]	; (800144c <SteerInit+0x2c>)
 800142c:	4252      	negs	r2, r2
 800142e:	4c08      	ldr	r4, [pc, #32]	; (8001450 <SteerInit+0x30>)
 8001430:	0059      	lsls	r1, r3, #1
 8001432:	54f0      	strb	r0, [r6, r3]
 8001434:	5558      	strb	r0, [r3, r5]
 8001436:	530a      	strh	r2, [r1, r4]
 8001438:	4c06      	ldr	r4, [pc, #24]	; (8001454 <SteerInit+0x34>)
 800143a:	530a      	strh	r2, [r1, r4]
 800143c:	4906      	ldr	r1, [pc, #24]	; (8001458 <SteerInit+0x38>)
 800143e:	54ca      	strb	r2, [r1, r3]
 8001440:	3301      	adds	r3, #1
 8001442:	2b08      	cmp	r3, #8
 8001444:	d1f3      	bne.n	800142e <SteerInit+0xe>
 8001446:	bd70      	pop	{r4, r5, r6, pc}
 8001448:	20000722 	.word	0x20000722
 800144c:	200001a4 	.word	0x200001a4
 8001450:	20000732 	.word	0x20000732
 8001454:	200001ac 	.word	0x200001ac
 8001458:	2000072a 	.word	0x2000072a

0800145c <SetSteerAngle>:
 800145c:	b510      	push	{r4, lr}
 800145e:	0004      	movs	r4, r0
 8001460:	29b4      	cmp	r1, #180	; 0xb4
 8001462:	d80e      	bhi.n	8001482 <SetSteerAngle+0x26>
 8001464:	4b07      	ldr	r3, [pc, #28]	; (8001484 <SetSteerAngle+0x28>)
 8001466:	0064      	lsls	r4, r4, #1
 8001468:	5419      	strb	r1, [r3, r0]
 800146a:	20fa      	movs	r0, #250	; 0xfa
 800146c:	00c0      	lsls	r0, r0, #3
 800146e:	4348      	muls	r0, r1
 8001470:	21b4      	movs	r1, #180	; 0xb4
 8001472:	f7ff fedd 	bl	8001230 <__divsi3>
 8001476:	0003      	movs	r3, r0
 8001478:	33f5      	adds	r3, #245	; 0xf5
 800147a:	4a03      	ldr	r2, [pc, #12]	; (8001488 <SetSteerAngle+0x2c>)
 800147c:	33ff      	adds	r3, #255	; 0xff
 800147e:	b29b      	uxth	r3, r3
 8001480:	52a3      	strh	r3, [r4, r2]
 8001482:	bd10      	pop	{r4, pc}
 8001484:	20000722 	.word	0x20000722
 8001488:	20000732 	.word	0x20000732

0800148c <SetSteerPulse>:
 800148c:	000b      	movs	r3, r1
 800148e:	22fa      	movs	r2, #250	; 0xfa
 8001490:	3bf5      	subs	r3, #245	; 0xf5
 8001492:	3bff      	subs	r3, #255	; 0xff
 8001494:	b29b      	uxth	r3, r3
 8001496:	00d2      	lsls	r2, r2, #3
 8001498:	4293      	cmp	r3, r2
 800149a:	d802      	bhi.n	80014a2 <SetSteerPulse+0x16>
 800149c:	4b01      	ldr	r3, [pc, #4]	; (80014a4 <SetSteerPulse+0x18>)
 800149e:	0040      	lsls	r0, r0, #1
 80014a0:	52c1      	strh	r1, [r0, r3]
 80014a2:	4770      	bx	lr
 80014a4:	20000732 	.word	0x20000732

080014a8 <SetPWMPulse>:
 80014a8:	2964      	cmp	r1, #100	; 0x64
 80014aa:	d807      	bhi.n	80014bc <SetPWMPulse+0x14>
 80014ac:	4b04      	ldr	r3, [pc, #16]	; (80014c0 <SetPWMPulse+0x18>)
 80014ae:	4a05      	ldr	r2, [pc, #20]	; (80014c4 <SetPWMPulse+0x1c>)
 80014b0:	781b      	ldrb	r3, [r3, #0]
 80014b2:	0040      	lsls	r0, r0, #1
 80014b4:	5cd3      	ldrb	r3, [r2, r3]
 80014b6:	4359      	muls	r1, r3
 80014b8:	4b03      	ldr	r3, [pc, #12]	; (80014c8 <SetPWMPulse+0x20>)
 80014ba:	52c1      	strh	r1, [r0, r3]
 80014bc:	4770      	bx	lr
 80014be:	46c0      	nop			; (mov r8, r8)
 80014c0:	200000cc 	.word	0x200000cc
 80014c4:	200000cd 	.word	0x200000cd
 80014c8:	20000712 	.word	0x20000712

080014cc <HAL_ADC_MspInit>:
 80014cc:	b510      	push	{r4, lr}
 80014ce:	0004      	movs	r4, r0
 80014d0:	b088      	sub	sp, #32
 80014d2:	2214      	movs	r2, #20
 80014d4:	2100      	movs	r1, #0
 80014d6:	a803      	add	r0, sp, #12
 80014d8:	f002 f8bf 	bl	800365a <memset>
 80014dc:	4b10      	ldr	r3, [pc, #64]	; (8001520 <HAL_ADC_MspInit+0x54>)
 80014de:	6822      	ldr	r2, [r4, #0]
 80014e0:	429a      	cmp	r2, r3
 80014e2:	d11b      	bne.n	800151c <HAL_ADC_MspInit+0x50>
 80014e4:	2080      	movs	r0, #128	; 0x80
 80014e6:	4b0f      	ldr	r3, [pc, #60]	; (8001524 <HAL_ADC_MspInit+0x58>)
 80014e8:	0080      	lsls	r0, r0, #2
 80014ea:	6999      	ldr	r1, [r3, #24]
 80014ec:	4301      	orrs	r1, r0
 80014ee:	6199      	str	r1, [r3, #24]
 80014f0:	2180      	movs	r1, #128	; 0x80
 80014f2:	699a      	ldr	r2, [r3, #24]
 80014f4:	0289      	lsls	r1, r1, #10
 80014f6:	4002      	ands	r2, r0
 80014f8:	9201      	str	r2, [sp, #4]
 80014fa:	9a01      	ldr	r2, [sp, #4]
 80014fc:	695a      	ldr	r2, [r3, #20]
 80014fe:	2090      	movs	r0, #144	; 0x90
 8001500:	430a      	orrs	r2, r1
 8001502:	615a      	str	r2, [r3, #20]
 8001504:	695b      	ldr	r3, [r3, #20]
 8001506:	05c0      	lsls	r0, r0, #23
 8001508:	400b      	ands	r3, r1
 800150a:	9302      	str	r3, [sp, #8]
 800150c:	9b02      	ldr	r3, [sp, #8]
 800150e:	2301      	movs	r3, #1
 8001510:	a903      	add	r1, sp, #12
 8001512:	9303      	str	r3, [sp, #12]
 8001514:	3302      	adds	r3, #2
 8001516:	9304      	str	r3, [sp, #16]
 8001518:	f001 fe34 	bl	8003184 <HAL_GPIO_Init>
 800151c:	b008      	add	sp, #32
 800151e:	bd10      	pop	{r4, pc}
 8001520:	40012400 	.word	0x40012400
 8001524:	40021000 	.word	0x40021000

08001528 <doseFlashHasPackedMessage>:
 8001528:	4b05      	ldr	r3, [pc, #20]	; (8001540 <doseFlashHasPackedMessage+0x18>)
 800152a:	2000      	movs	r0, #0
 800152c:	881a      	ldrh	r2, [r3, #0]
 800152e:	4b05      	ldr	r3, [pc, #20]	; (8001544 <doseFlashHasPackedMessage+0x1c>)
 8001530:	429a      	cmp	r2, r3
 8001532:	d104      	bne.n	800153e <doseFlashHasPackedMessage+0x16>
 8001534:	4b04      	ldr	r3, [pc, #16]	; (8001548 <doseFlashHasPackedMessage+0x20>)
 8001536:	8818      	ldrh	r0, [r3, #0]
 8001538:	1e43      	subs	r3, r0, #1
 800153a:	4198      	sbcs	r0, r3
 800153c:	b2c0      	uxtb	r0, r0
 800153e:	4770      	bx	lr
 8001540:	08003c00 	.word	0x08003c00
 8001544:	0000aa55 	.word	0x0000aa55
 8001548:	08003c02 	.word	0x08003c02

0800154c <getValuablePackedMessageLengthofFlash>:
 800154c:	4b04      	ldr	r3, [pc, #16]	; (8001560 <getValuablePackedMessageLengthofFlash+0x14>)
 800154e:	2000      	movs	r0, #0
 8001550:	881a      	ldrh	r2, [r3, #0]
 8001552:	4b04      	ldr	r3, [pc, #16]	; (8001564 <getValuablePackedMessageLengthofFlash+0x18>)
 8001554:	429a      	cmp	r2, r3
 8001556:	d101      	bne.n	800155c <getValuablePackedMessageLengthofFlash+0x10>
 8001558:	4b03      	ldr	r3, [pc, #12]	; (8001568 <getValuablePackedMessageLengthofFlash+0x1c>)
 800155a:	8818      	ldrh	r0, [r3, #0]
 800155c:	4770      	bx	lr
 800155e:	46c0      	nop			; (mov r8, r8)
 8001560:	08003c00 	.word	0x08003c00
 8001564:	0000aa55 	.word	0x0000aa55
 8001568:	08003c02 	.word	0x08003c02

0800156c <readPackedMessageFromFlash>:
 800156c:	b5f8      	push	{r3, r4, r5, r6, r7, lr}
 800156e:	0005      	movs	r5, r0
 8001570:	000c      	movs	r4, r1
 8001572:	f7ff ffd9 	bl	8001528 <doseFlashHasPackedMessage>
 8001576:	2800      	cmp	r0, #0
 8001578:	d00e      	beq.n	8001598 <readPackedMessageFromFlash+0x2c>
 800157a:	f7ff ffe7 	bl	800154c <getValuablePackedMessageLengthofFlash>
 800157e:	4b09      	ldr	r3, [pc, #36]	; (80015a4 <readPackedMessageFromFlash+0x38>)
 8001580:	2100      	movs	r1, #0
 8001582:	469c      	mov	ip, r3
 8001584:	1c06      	adds	r6, r0, #0
 8001586:	b282      	uxth	r2, r0
 8001588:	1c27      	adds	r7, r4, #0
 800158a:	1c30      	adds	r0, r6, #0
 800158c:	42a2      	cmp	r2, r4
 800158e:	d900      	bls.n	8001592 <readPackedMessageFromFlash+0x26>
 8001590:	1c38      	adds	r0, r7, #0
 8001592:	b280      	uxth	r0, r0
 8001594:	4288      	cmp	r0, r1
 8001596:	dc00      	bgt.n	800159a <readPackedMessageFromFlash+0x2e>
 8001598:	bdf8      	pop	{r3, r4, r5, r6, r7, pc}
 800159a:	4663      	mov	r3, ip
 800159c:	5ccb      	ldrb	r3, [r1, r3]
 800159e:	546b      	strb	r3, [r5, r1]
 80015a0:	3101      	adds	r1, #1
 80015a2:	e7f2      	b.n	800158a <readPackedMessageFromFlash+0x1e>
 80015a4:	08003c04 	.word	0x08003c04

080015a8 <writeMessageToFlash>:
 80015a8:	23ff      	movs	r3, #255	; 0xff
 80015aa:	b5f0      	push	{r4, r5, r6, r7, lr}
 80015ac:	009b      	lsls	r3, r3, #2
 80015ae:	0005      	movs	r5, r0
 80015b0:	000c      	movs	r4, r1
 80015b2:	b085      	sub	sp, #20
 80015b4:	4299      	cmp	r1, r3
 80015b6:	d902      	bls.n	80015be <writeMessageToFlash+0x16>
 80015b8:	2000      	movs	r0, #0
 80015ba:	b005      	add	sp, #20
 80015bc:	bdf0      	pop	{r4, r5, r6, r7, pc}
 80015be:	f001 fce9 	bl	8002f94 <HAL_FLASH_Unlock>
 80015c2:	2800      	cmp	r0, #0
 80015c4:	d1f8      	bne.n	80015b8 <writeMessageToFlash+0x10>
 80015c6:	2601      	movs	r6, #1
 80015c8:	4f26      	ldr	r7, [pc, #152]	; (8001664 <writeMessageToFlash+0xbc>)
 80015ca:	9001      	str	r0, [sp, #4]
 80015cc:	9000      	str	r0, [sp, #0]
 80015ce:	4669      	mov	r1, sp
 80015d0:	a801      	add	r0, sp, #4
 80015d2:	9702      	str	r7, [sp, #8]
 80015d4:	9603      	str	r6, [sp, #12]
 80015d6:	f001 fd8b 	bl	80030f0 <HAL_FLASHEx_Erase>
 80015da:	2800      	cmp	r0, #0
 80015dc:	d002      	beq.n	80015e4 <writeMessageToFlash+0x3c>
 80015de:	f001 fced 	bl	8002fbc <HAL_FLASH_Lock>
 80015e2:	e7e9      	b.n	80015b8 <writeMessageToFlash+0x10>
 80015e4:	2300      	movs	r3, #0
 80015e6:	0039      	movs	r1, r7
 80015e8:	0030      	movs	r0, r6
 80015ea:	4a1f      	ldr	r2, [pc, #124]	; (8001668 <writeMessageToFlash+0xc0>)
 80015ec:	f001 fd1a 	bl	8003024 <HAL_FLASH_Program>
 80015f0:	1e03      	subs	r3, r0, #0
 80015f2:	d1f4      	bne.n	80015de <writeMessageToFlash+0x36>
 80015f4:	0022      	movs	r2, r4
 80015f6:	0030      	movs	r0, r6
 80015f8:	491c      	ldr	r1, [pc, #112]	; (800166c <writeMessageToFlash+0xc4>)
 80015fa:	f001 fd13 	bl	8003024 <HAL_FLASH_Program>
 80015fe:	2800      	cmp	r0, #0
 8001600:	d1ed      	bne.n	80015de <writeMessageToFlash+0x36>
 8001602:	002e      	movs	r6, r5
 8001604:	0867      	lsrs	r7, r4, #1
 8001606:	007f      	lsls	r7, r7, #1
 8001608:	197f      	adds	r7, r7, r5
 800160a:	42be      	cmp	r6, r7
 800160c:	d114      	bne.n	8001638 <writeMessageToFlash+0x90>
 800160e:	2001      	movs	r0, #1
 8001610:	4204      	tst	r4, r0
 8001612:	d009      	beq.n	8001628 <writeMessageToFlash+0x80>
 8001614:	4916      	ldr	r1, [pc, #88]	; (8001670 <writeMessageToFlash+0xc8>)
 8001616:	192b      	adds	r3, r5, r4
 8001618:	3b01      	subs	r3, #1
 800161a:	781a      	ldrb	r2, [r3, #0]
 800161c:	1861      	adds	r1, r4, r1
 800161e:	2300      	movs	r3, #0
 8001620:	f001 fd00 	bl	8003024 <HAL_FLASH_Program>
 8001624:	2800      	cmp	r0, #0
 8001626:	d1da      	bne.n	80015de <writeMessageToFlash+0x36>
 8001628:	2300      	movs	r3, #0
 800162a:	4a12      	ldr	r2, [pc, #72]	; (8001674 <writeMessageToFlash+0xcc>)
 800162c:	42a3      	cmp	r3, r4
 800162e:	db12      	blt.n	8001656 <writeMessageToFlash+0xae>
 8001630:	f001 fcc4 	bl	8002fbc <HAL_FLASH_Lock>
 8001634:	2001      	movs	r0, #1
 8001636:	e7c0      	b.n	80015ba <writeMessageToFlash+0x12>
 8001638:	7873      	ldrb	r3, [r6, #1]
 800163a:	7832      	ldrb	r2, [r6, #0]
 800163c:	021b      	lsls	r3, r3, #8
 800163e:	431a      	orrs	r2, r3
 8001640:	4b0c      	ldr	r3, [pc, #48]	; (8001674 <writeMessageToFlash+0xcc>)
 8001642:	1b71      	subs	r1, r6, r5
 8001644:	18c9      	adds	r1, r1, r3
 8001646:	2001      	movs	r0, #1
 8001648:	2300      	movs	r3, #0
 800164a:	f001 fceb 	bl	8003024 <HAL_FLASH_Program>
 800164e:	3602      	adds	r6, #2
 8001650:	2800      	cmp	r0, #0
 8001652:	d0da      	beq.n	800160a <writeMessageToFlash+0x62>
 8001654:	e7c3      	b.n	80015de <writeMessageToFlash+0x36>
 8001656:	5c98      	ldrb	r0, [r3, r2]
 8001658:	5ce9      	ldrb	r1, [r5, r3]
 800165a:	4288      	cmp	r0, r1
 800165c:	d1bf      	bne.n	80015de <writeMessageToFlash+0x36>
 800165e:	3301      	adds	r3, #1
 8001660:	e7e4      	b.n	800162c <writeMessageToFlash+0x84>
 8001662:	46c0      	nop			; (mov r8, r8)
 8001664:	08003c00 	.word	0x08003c00
 8001668:	0000aa55 	.word	0x0000aa55
 800166c:	08003c02 	.word	0x08003c02
 8001670:	08003c03 	.word	0x08003c03
 8001674:	08003c04 	.word	0x08003c04

08001678 <MX_GPIO_Init>:
 8001678:	b57f      	push	{r0, r1, r2, r3, r4, r5, r6, lr}
 800167a:	2210      	movs	r2, #16
 800167c:	2100      	movs	r1, #0
 800167e:	a802      	add	r0, sp, #8
 8001680:	f001 ffeb 	bl	800365a <memset>
 8001684:	2080      	movs	r0, #128	; 0x80
 8001686:	4a09      	ldr	r2, [pc, #36]	; (80016ac <MX_GPIO_Init+0x34>)
 8001688:	0280      	lsls	r0, r0, #10
 800168a:	6951      	ldr	r1, [r2, #20]
 800168c:	4301      	orrs	r1, r0
 800168e:	6151      	str	r1, [r2, #20]
 8001690:	6953      	ldr	r3, [r2, #20]
 8001692:	a901      	add	r1, sp, #4
 8001694:	4003      	ands	r3, r0
 8001696:	9300      	str	r3, [sp, #0]
 8001698:	2090      	movs	r0, #144	; 0x90
 800169a:	9b00      	ldr	r3, [sp, #0]
 800169c:	23ff      	movs	r3, #255	; 0xff
 800169e:	05c0      	lsls	r0, r0, #23
 80016a0:	9301      	str	r3, [sp, #4]
 80016a2:	f001 fd6f 	bl	8003184 <HAL_GPIO_Init>
 80016a6:	b007      	add	sp, #28
 80016a8:	bd00      	pop	{pc}
 80016aa:	46c0      	nop			; (mov r8, r8)
 80016ac:	40021000 	.word	0x40021000

080016b0 <user_i2c_init>:
 80016b0:	b5f0      	push	{r4, r5, r6, r7, lr}
 80016b2:	2400      	movs	r4, #0
 80016b4:	b091      	sub	sp, #68	; 0x44
 80016b6:	221c      	movs	r2, #28
 80016b8:	2100      	movs	r1, #0
 80016ba:	a809      	add	r0, sp, #36	; 0x24
 80016bc:	f001 ffcd 	bl	800365a <memset>
 80016c0:	2180      	movs	r1, #128	; 0x80
 80016c2:	4d34      	ldr	r5, [pc, #208]	; (8001794 <user_i2c_init+0xe4>)
 80016c4:	9407      	str	r4, [sp, #28]
 80016c6:	696a      	ldr	r2, [r5, #20]
 80016c8:	0289      	lsls	r1, r1, #10
 80016ca:	430a      	orrs	r2, r1
 80016cc:	616a      	str	r2, [r5, #20]
 80016ce:	696b      	ldr	r3, [r5, #20]
 80016d0:	2690      	movs	r6, #144	; 0x90
 80016d2:	400b      	ands	r3, r1
 80016d4:	9302      	str	r3, [sp, #8]
 80016d6:	9b02      	ldr	r3, [sp, #8]
 80016d8:	2380      	movs	r3, #128	; 0x80
 80016da:	2104      	movs	r1, #4
 80016dc:	2702      	movs	r7, #2
 80016de:	2201      	movs	r2, #1
 80016e0:	009b      	lsls	r3, r3, #2
 80016e2:	9303      	str	r3, [sp, #12]
 80016e4:	05f6      	lsls	r6, r6, #23
 80016e6:	a803      	add	r0, sp, #12
 80016e8:	3bfe      	subs	r3, #254	; 0xfe
 80016ea:	3bff      	subs	r3, #255	; 0xff
 80016ec:	9108      	str	r1, [sp, #32]
 80016ee:	0001      	movs	r1, r0
 80016f0:	0030      	movs	r0, r6
 80016f2:	9305      	str	r3, [sp, #20]
 80016f4:	9206      	str	r2, [sp, #24]
 80016f6:	9704      	str	r7, [sp, #16]
 80016f8:	f001 fec8 	bl	800348c <LL_GPIO_Init>
 80016fc:	2380      	movs	r3, #128	; 0x80
 80016fe:	2104      	movs	r1, #4
 8001700:	00db      	lsls	r3, r3, #3
 8001702:	2201      	movs	r2, #1
 8001704:	9303      	str	r3, [sp, #12]
 8001706:	2303      	movs	r3, #3
 8001708:	9108      	str	r1, [sp, #32]
 800170a:	0030      	movs	r0, r6
 800170c:	a903      	add	r1, sp, #12
 800170e:	9305      	str	r3, [sp, #20]
 8001710:	9206      	str	r2, [sp, #24]
 8001712:	9704      	str	r7, [sp, #16]
 8001714:	9407      	str	r4, [sp, #28]
 8001716:	f001 feb9 	bl	800348c <LL_GPIO_Init>
 800171a:	2180      	movs	r1, #128	; 0x80
 800171c:	69ea      	ldr	r2, [r5, #28]
 800171e:	0389      	lsls	r1, r1, #14
 8001720:	430a      	orrs	r2, r1
 8001722:	61ea      	str	r2, [r5, #28]
 8001724:	69eb      	ldr	r3, [r5, #28]
 8001726:	4a1c      	ldr	r2, [pc, #112]	; (8001798 <user_i2c_init+0xe8>)
 8001728:	400b      	ands	r3, r1
 800172a:	21c5      	movs	r1, #197	; 0xc5
 800172c:	9301      	str	r3, [sp, #4]
 800172e:	0089      	lsls	r1, r1, #2
 8001730:	9b01      	ldr	r3, [sp, #4]
 8001732:	5853      	ldr	r3, [r2, r1]
 8001734:	4d19      	ldr	r5, [pc, #100]	; (800179c <user_i2c_init+0xec>)
 8001736:	021b      	lsls	r3, r3, #8
 8001738:	0a1b      	lsrs	r3, r3, #8
 800173a:	5053      	str	r3, [r2, r1]
 800173c:	2380      	movs	r3, #128	; 0x80
 800173e:	041b      	lsls	r3, r3, #16
 8001740:	6013      	str	r3, [r2, #0]
 8001742:	68eb      	ldr	r3, [r5, #12]
 8001744:	4a16      	ldr	r2, [pc, #88]	; (80017a0 <user_i2c_init+0xf0>)
 8001746:	4e17      	ldr	r6, [pc, #92]	; (80017a4 <user_i2c_init+0xf4>)
 8001748:	4013      	ands	r3, r2
 800174a:	60eb      	str	r3, [r5, #12]
 800174c:	682b      	ldr	r3, [r5, #0]
 800174e:	4a16      	ldr	r2, [pc, #88]	; (80017a8 <user_i2c_init+0xf8>)
 8001750:	a909      	add	r1, sp, #36	; 0x24
 8001752:	4013      	ands	r3, r2
 8001754:	602b      	str	r3, [r5, #0]
 8001756:	682b      	ldr	r3, [r5, #0]
 8001758:	4a14      	ldr	r2, [pc, #80]	; (80017ac <user_i2c_init+0xfc>)
 800175a:	0028      	movs	r0, r5
 800175c:	4013      	ands	r3, r2
 800175e:	602b      	str	r3, [r5, #0]
 8001760:	4b13      	ldr	r3, [pc, #76]	; (80017b0 <user_i2c_init+0x100>)
 8001762:	9409      	str	r4, [sp, #36]	; 0x24
 8001764:	930a      	str	r3, [sp, #40]	; 0x28
 8001766:	7833      	ldrb	r3, [r6, #0]
 8001768:	940b      	str	r4, [sp, #44]	; 0x2c
 800176a:	005b      	lsls	r3, r3, #1
 800176c:	930d      	str	r3, [sp, #52]	; 0x34
 800176e:	940c      	str	r4, [sp, #48]	; 0x30
 8001770:	940e      	str	r4, [sp, #56]	; 0x38
 8001772:	940f      	str	r4, [sp, #60]	; 0x3c
 8001774:	f001 fef4 	bl	8003560 <LL_I2C_Init>
 8001778:	2380      	movs	r3, #128	; 0x80
 800177a:	686a      	ldr	r2, [r5, #4]
 800177c:	049b      	lsls	r3, r3, #18
 800177e:	4313      	orrs	r3, r2
 8001780:	606b      	str	r3, [r5, #4]
 8001782:	68eb      	ldr	r3, [r5, #12]
 8001784:	4a0b      	ldr	r2, [pc, #44]	; (80017b4 <user_i2c_init+0x104>)
 8001786:	4013      	ands	r3, r2
 8001788:	60eb      	str	r3, [r5, #12]
 800178a:	7830      	ldrb	r0, [r6, #0]
 800178c:	f000 f814 	bl	80017b8 <set_i2c_slave_address>
 8001790:	b011      	add	sp, #68	; 0x44
 8001792:	bdf0      	pop	{r4, r5, r6, r7, pc}
 8001794:	40021000 	.word	0x40021000
 8001798:	e000e100 	.word	0xe000e100
 800179c:	40005400 	.word	0x40005400
 80017a0:	ffff7fff 	.word	0xffff7fff
 80017a4:	200006ed 	.word	0x200006ed
 80017a8:	fff7ffff 	.word	0xfff7ffff
 80017ac:	fffdffff 	.word	0xfffdffff
 80017b0:	0000020b 	.word	0x0000020b
 80017b4:	fffff801 	.word	0xfffff801

080017b8 <set_i2c_slave_address>:
 80017b8:	4b02      	ldr	r3, [pc, #8]	; (80017c4 <set_i2c_slave_address+0xc>)
 80017ba:	0040      	lsls	r0, r0, #1
 80017bc:	b2c0      	uxtb	r0, r0
 80017be:	7018      	strb	r0, [r3, #0]
 80017c0:	4770      	bx	lr
 80017c2:	46c0      	nop			; (mov r8, r8)
 80017c4:	20000454 	.word	0x20000454

080017c8 <i2c1_it_enable>:
 80017c8:	2201      	movs	r2, #1
 80017ca:	4b0a      	ldr	r3, [pc, #40]	; (80017f4 <i2c1_it_enable+0x2c>)
 80017cc:	6819      	ldr	r1, [r3, #0]
 80017ce:	430a      	orrs	r2, r1
 80017d0:	601a      	str	r2, [r3, #0]
 80017d2:	2208      	movs	r2, #8
 80017d4:	6819      	ldr	r1, [r3, #0]
 80017d6:	430a      	orrs	r2, r1
 80017d8:	601a      	str	r2, [r3, #0]
 80017da:	2210      	movs	r2, #16
 80017dc:	6819      	ldr	r1, [r3, #0]
 80017de:	430a      	orrs	r2, r1
 80017e0:	601a      	str	r2, [r3, #0]
 80017e2:	2280      	movs	r2, #128	; 0x80
 80017e4:	6819      	ldr	r1, [r3, #0]
 80017e6:	430a      	orrs	r2, r1
 80017e8:	601a      	str	r2, [r3, #0]
 80017ea:	2220      	movs	r2, #32
 80017ec:	6819      	ldr	r1, [r3, #0]
 80017ee:	430a      	orrs	r2, r1
 80017f0:	601a      	str	r2, [r3, #0]
 80017f2:	4770      	bx	lr
 80017f4:	40005400 	.word	0x40005400

080017f8 <i2c1_it_disable>:
 80017f8:	2108      	movs	r1, #8
 80017fa:	4b08      	ldr	r3, [pc, #32]	; (800181c <i2c1_it_disable+0x24>)
 80017fc:	681a      	ldr	r2, [r3, #0]
 80017fe:	438a      	bics	r2, r1
 8001800:	601a      	str	r2, [r3, #0]
 8001802:	681a      	ldr	r2, [r3, #0]
 8001804:	1849      	adds	r1, r1, r1
 8001806:	438a      	bics	r2, r1
 8001808:	601a      	str	r2, [r3, #0]
 800180a:	681a      	ldr	r2, [r3, #0]
 800180c:	3170      	adds	r1, #112	; 0x70
 800180e:	438a      	bics	r2, r1
 8001810:	601a      	str	r2, [r3, #0]
 8001812:	681a      	ldr	r2, [r3, #0]
 8001814:	3960      	subs	r1, #96	; 0x60
 8001816:	438a      	bics	r2, r1
 8001818:	601a      	str	r2, [r3, #0]
 800181a:	4770      	bx	lr
 800181c:	40005400 	.word	0x40005400

08001820 <i2c1_set_send_data>:
 8001820:	2396      	movs	r3, #150	; 0x96
 8001822:	b510      	push	{r4, lr}
 8001824:	009b      	lsls	r3, r3, #2
 8001826:	000c      	movs	r4, r1
 8001828:	4299      	cmp	r1, r3
 800182a:	d802      	bhi.n	8001832 <i2c1_set_send_data+0x12>
 800182c:	2900      	cmp	r1, #0
 800182e:	d101      	bne.n	8001834 <i2c1_set_send_data+0x14>
 8001830:	bd10      	pop	{r4, pc}
 8001832:	001c      	movs	r4, r3
 8001834:	2800      	cmp	r0, #0
 8001836:	d0fb      	beq.n	8001830 <i2c1_set_send_data+0x10>
 8001838:	0022      	movs	r2, r4
 800183a:	0001      	movs	r1, r0
 800183c:	4804      	ldr	r0, [pc, #16]	; (8001850 <i2c1_set_send_data+0x30>)
 800183e:	f001 ff03 	bl	8003648 <memcpy>
 8001842:	2200      	movs	r2, #0
 8001844:	4b03      	ldr	r3, [pc, #12]	; (8001854 <i2c1_set_send_data+0x34>)
 8001846:	801a      	strh	r2, [r3, #0]
 8001848:	4b03      	ldr	r3, [pc, #12]	; (8001858 <i2c1_set_send_data+0x38>)
 800184a:	801c      	strh	r4, [r3, #0]
 800184c:	e7f0      	b.n	8001830 <i2c1_set_send_data+0x10>
 800184e:	46c0      	nop			; (mov r8, r8)
 8001850:	20000464 	.word	0x20000464
 8001854:	200006bc 	.word	0x200006bc
 8001858:	200006be 	.word	0x200006be

0800185c <Slave_Reception_Callback>:
 800185c:	4b09      	ldr	r3, [pc, #36]	; (8001884 <Slave_Reception_Callback+0x28>)
 800185e:	490a      	ldr	r1, [pc, #40]	; (8001888 <Slave_Reception_Callback+0x2c>)
 8001860:	881a      	ldrh	r2, [r3, #0]
 8001862:	6a49      	ldr	r1, [r1, #36]	; 0x24
 8001864:	4809      	ldr	r0, [pc, #36]	; (800188c <Slave_Reception_Callback+0x30>)
 8001866:	b292      	uxth	r2, r2
 8001868:	b2c9      	uxtb	r1, r1
 800186a:	5481      	strb	r1, [r0, r2]
 800186c:	881a      	ldrh	r2, [r3, #0]
 800186e:	3201      	adds	r2, #1
 8001870:	b292      	uxth	r2, r2
 8001872:	801a      	strh	r2, [r3, #0]
 8001874:	2296      	movs	r2, #150	; 0x96
 8001876:	8819      	ldrh	r1, [r3, #0]
 8001878:	0092      	lsls	r2, r2, #2
 800187a:	4291      	cmp	r1, r2
 800187c:	d301      	bcc.n	8001882 <Slave_Reception_Callback+0x26>
 800187e:	2200      	movs	r2, #0
 8001880:	801a      	strh	r2, [r3, #0]
 8001882:	4770      	bx	lr
 8001884:	200006c0 	.word	0x200006c0
 8001888:	40005400 	.word	0x40005400
 800188c:	200001fc 	.word	0x200001fc

08001890 <Slave_Ready_To_Transmit_Callback>:
 8001890:	4b0d      	ldr	r3, [pc, #52]	; (80018c8 <Slave_Ready_To_Transmit_Callback+0x38>)
 8001892:	490e      	ldr	r1, [pc, #56]	; (80018cc <Slave_Ready_To_Transmit_Callback+0x3c>)
 8001894:	881a      	ldrh	r2, [r3, #0]
 8001896:	b292      	uxth	r2, r2
 8001898:	5c8a      	ldrb	r2, [r1, r2]
 800189a:	490d      	ldr	r1, [pc, #52]	; (80018d0 <Slave_Ready_To_Transmit_Callback+0x40>)
 800189c:	b2d2      	uxtb	r2, r2
 800189e:	628a      	str	r2, [r1, #40]	; 0x28
 80018a0:	881a      	ldrh	r2, [r3, #0]
 80018a2:	3201      	adds	r2, #1
 80018a4:	b292      	uxth	r2, r2
 80018a6:	801a      	strh	r2, [r3, #0]
 80018a8:	4a0a      	ldr	r2, [pc, #40]	; (80018d4 <Slave_Ready_To_Transmit_Callback+0x44>)
 80018aa:	8819      	ldrh	r1, [r3, #0]
 80018ac:	8812      	ldrh	r2, [r2, #0]
 80018ae:	4291      	cmp	r1, r2
 80018b0:	d301      	bcc.n	80018b6 <Slave_Ready_To_Transmit_Callback+0x26>
 80018b2:	2200      	movs	r2, #0
 80018b4:	801a      	strh	r2, [r3, #0]
 80018b6:	2296      	movs	r2, #150	; 0x96
 80018b8:	8819      	ldrh	r1, [r3, #0]
 80018ba:	0092      	lsls	r2, r2, #2
 80018bc:	4291      	cmp	r1, r2
 80018be:	d301      	bcc.n	80018c4 <Slave_Ready_To_Transmit_Callback+0x34>
 80018c0:	2200      	movs	r2, #0
 80018c2:	801a      	strh	r2, [r3, #0]
 80018c4:	4770      	bx	lr
 80018c6:	46c0      	nop			; (mov r8, r8)
 80018c8:	200006bc 	.word	0x200006bc
 80018cc:	20000464 	.word	0x20000464
 80018d0:	40005400 	.word	0x40005400
 80018d4:	200006be 	.word	0x200006be

080018d8 <I2C1_IRQHandler>:
 80018d8:	b570      	push	{r4, r5, r6, lr}
 80018da:	4d47      	ldr	r5, [pc, #284]	; (80019f8 <I2C1_IRQHandler+0x120>)
 80018dc:	4c47      	ldr	r4, [pc, #284]	; (80019fc <I2C1_IRQHandler+0x124>)
 80018de:	682b      	ldr	r3, [r5, #0]
 80018e0:	3301      	adds	r3, #1
 80018e2:	602b      	str	r3, [r5, #0]
 80018e4:	23fa      	movs	r3, #250	; 0xfa
 80018e6:	682a      	ldr	r2, [r5, #0]
 80018e8:	01db      	lsls	r3, r3, #7
 80018ea:	429a      	cmp	r2, r3
 80018ec:	d914      	bls.n	8001918 <I2C1_IRQHandler+0x40>
 80018ee:	0020      	movs	r0, r4
 80018f0:	f001 fe1e 	bl	8003530 <LL_I2C_DeInit>
 80018f4:	6863      	ldr	r3, [r4, #4]
 80018f6:	4a42      	ldr	r2, [pc, #264]	; (8001a00 <I2C1_IRQHandler+0x128>)
 80018f8:	4013      	ands	r3, r2
 80018fa:	2201      	movs	r2, #1
 80018fc:	6063      	str	r3, [r4, #4]
 80018fe:	6823      	ldr	r3, [r4, #0]
 8001900:	4393      	bics	r3, r2
 8001902:	6023      	str	r3, [r4, #0]
 8001904:	6823      	ldr	r3, [r4, #0]
 8001906:	3207      	adds	r2, #7
 8001908:	4393      	bics	r3, r2
 800190a:	6023      	str	r3, [r4, #0]
 800190c:	f7ff fed0 	bl	80016b0 <user_i2c_init>
 8001910:	f7ff ff5a 	bl	80017c8 <i2c1_it_enable>
 8001914:	2300      	movs	r3, #0
 8001916:	602b      	str	r3, [r5, #0]
 8001918:	2208      	movs	r2, #8
 800191a:	69a3      	ldr	r3, [r4, #24]
 800191c:	4213      	tst	r3, r2
 800191e:	d028      	beq.n	8001972 <I2C1_IRQHandler+0x9a>
 8001920:	20ff      	movs	r0, #255	; 0xff
 8001922:	69a3      	ldr	r3, [r4, #24]
 8001924:	4937      	ldr	r1, [pc, #220]	; (8001a04 <I2C1_IRQHandler+0x12c>)
 8001926:	0c5b      	lsrs	r3, r3, #17
 8001928:	7809      	ldrb	r1, [r1, #0]
 800192a:	005b      	lsls	r3, r3, #1
 800192c:	4003      	ands	r3, r0
 800192e:	4299      	cmp	r1, r3
 8001930:	d13b      	bne.n	80019aa <I2C1_IRQHandler+0xd2>
 8001932:	4d35      	ldr	r5, [pc, #212]	; (8001a08 <I2C1_IRQHandler+0x130>)
 8001934:	882b      	ldrh	r3, [r5, #0]
 8001936:	2b00      	cmp	r3, #0
 8001938:	d00a      	beq.n	8001950 <I2C1_IRQHandler+0x78>
 800193a:	f7ff ff5d 	bl	80017f8 <i2c1_it_disable>
 800193e:	8829      	ldrh	r1, [r5, #0]
 8001940:	4832      	ldr	r0, [pc, #200]	; (8001a0c <I2C1_IRQHandler+0x134>)
 8001942:	b289      	uxth	r1, r1
 8001944:	f000 f960 	bl	8001c08 <Slave_Complete_Callback>
 8001948:	2300      	movs	r3, #0
 800194a:	802b      	strh	r3, [r5, #0]
 800194c:	f7ff ff3c 	bl	80017c8 <i2c1_it_enable>
 8001950:	2280      	movs	r2, #128	; 0x80
 8001952:	69a3      	ldr	r3, [r4, #24]
 8001954:	0252      	lsls	r2, r2, #9
 8001956:	4213      	tst	r3, r2
 8001958:	d11b      	bne.n	8001992 <I2C1_IRQHandler+0xba>
 800195a:	2308      	movs	r3, #8
 800195c:	69e2      	ldr	r2, [r4, #28]
 800195e:	4313      	orrs	r3, r2
 8001960:	61e3      	str	r3, [r4, #28]
 8001962:	2304      	movs	r3, #4
 8001964:	6822      	ldr	r2, [r4, #0]
 8001966:	4313      	orrs	r3, r2
 8001968:	2201      	movs	r2, #1
 800196a:	6023      	str	r3, [r4, #0]
 800196c:	4b28      	ldr	r3, [pc, #160]	; (8001a10 <I2C1_IRQHandler+0x138>)
 800196e:	601a      	str	r2, [r3, #0]
 8001970:	bd70      	pop	{r4, r5, r6, pc}
 8001972:	2310      	movs	r3, #16
 8001974:	69a2      	ldr	r2, [r4, #24]
 8001976:	421a      	tst	r2, r3
 8001978:	d11b      	bne.n	80019b2 <I2C1_IRQHandler+0xda>
 800197a:	69a3      	ldr	r3, [r4, #24]
 800197c:	079b      	lsls	r3, r3, #30
 800197e:	d41c      	bmi.n	80019ba <I2C1_IRQHandler+0xe2>
 8001980:	69a3      	ldr	r3, [r4, #24]
 8001982:	075b      	lsls	r3, r3, #29
 8001984:	d41c      	bmi.n	80019c0 <I2C1_IRQHandler+0xe8>
 8001986:	2320      	movs	r3, #32
 8001988:	69a2      	ldr	r2, [r4, #24]
 800198a:	421a      	tst	r2, r3
 800198c:	d11b      	bne.n	80019c6 <I2C1_IRQHandler+0xee>
 800198e:	69a3      	ldr	r3, [r4, #24]
 8001990:	e7ee      	b.n	8001970 <I2C1_IRQHandler+0x98>
 8001992:	69a1      	ldr	r1, [r4, #24]
 8001994:	2308      	movs	r3, #8
 8001996:	4211      	tst	r1, r2
 8001998:	d00b      	beq.n	80019b2 <I2C1_IRQHandler+0xda>
 800199a:	69e2      	ldr	r2, [r4, #28]
 800199c:	4313      	orrs	r3, r2
 800199e:	61e3      	str	r3, [r4, #28]
 80019a0:	2302      	movs	r3, #2
 80019a2:	6822      	ldr	r2, [r4, #0]
 80019a4:	4313      	orrs	r3, r2
 80019a6:	6023      	str	r3, [r4, #0]
 80019a8:	e7e2      	b.n	8001970 <I2C1_IRQHandler+0x98>
 80019aa:	69e3      	ldr	r3, [r4, #28]
 80019ac:	431a      	orrs	r2, r3
 80019ae:	61e2      	str	r2, [r4, #28]
 80019b0:	e7de      	b.n	8001970 <I2C1_IRQHandler+0x98>
 80019b2:	69e2      	ldr	r2, [r4, #28]
 80019b4:	4313      	orrs	r3, r2
 80019b6:	61e3      	str	r3, [r4, #28]
 80019b8:	e7da      	b.n	8001970 <I2C1_IRQHandler+0x98>
 80019ba:	f7ff ff69 	bl	8001890 <Slave_Ready_To_Transmit_Callback>
 80019be:	e7d7      	b.n	8001970 <I2C1_IRQHandler+0x98>
 80019c0:	f7ff ff4c 	bl	800185c <Slave_Reception_Callback>
 80019c4:	e7d4      	b.n	8001970 <I2C1_IRQHandler+0x98>
 80019c6:	69e2      	ldr	r2, [r4, #28]
 80019c8:	4313      	orrs	r3, r2
 80019ca:	61e3      	str	r3, [r4, #28]
 80019cc:	2301      	movs	r3, #1
 80019ce:	69a2      	ldr	r2, [r4, #24]
 80019d0:	421a      	tst	r2, r3
 80019d2:	d100      	bne.n	80019d6 <I2C1_IRQHandler+0xfe>
 80019d4:	61a3      	str	r3, [r4, #24]
 80019d6:	2400      	movs	r4, #0
 80019d8:	f7ff ff0e 	bl	80017f8 <i2c1_it_disable>
 80019dc:	4d0a      	ldr	r5, [pc, #40]	; (8001a08 <I2C1_IRQHandler+0x130>)
 80019de:	480b      	ldr	r0, [pc, #44]	; (8001a0c <I2C1_IRQHandler+0x134>)
 80019e0:	8829      	ldrh	r1, [r5, #0]
 80019e2:	b289      	uxth	r1, r1
 80019e4:	f000 f910 	bl	8001c08 <Slave_Complete_Callback>
 80019e8:	802c      	strh	r4, [r5, #0]
 80019ea:	f7ff feed 	bl	80017c8 <i2c1_it_enable>
 80019ee:	4b08      	ldr	r3, [pc, #32]	; (8001a10 <I2C1_IRQHandler+0x138>)
 80019f0:	601c      	str	r4, [r3, #0]
 80019f2:	4b08      	ldr	r3, [pc, #32]	; (8001a14 <I2C1_IRQHandler+0x13c>)
 80019f4:	601c      	str	r4, [r3, #0]
 80019f6:	e7bb      	b.n	8001970 <I2C1_IRQHandler+0x98>
 80019f8:	20000460 	.word	0x20000460
 80019fc:	40005400 	.word	0x40005400
 8001a00:	fdffffff 	.word	0xfdffffff
 8001a04:	20000454 	.word	0x20000454
 8001a08:	200006c0 	.word	0x200006c0
 8001a0c:	200001fc 	.word	0x200001fc
 8001a10:	2000045c 	.word	0x2000045c
 8001a14:	20000458 	.word	0x20000458

08001a18 <IAP_Set>:
 8001a18:	2380      	movs	r3, #128	; 0x80
 8001a1a:	4a0f      	ldr	r2, [pc, #60]	; (8001a58 <IAP_Set+0x40>)
 8001a1c:	b082      	sub	sp, #8
 8001a1e:	059b      	lsls	r3, r3, #22
 8001a20:	490e      	ldr	r1, [pc, #56]	; (8001a5c <IAP_Set+0x44>)
 8001a22:	1858      	adds	r0, r3, r1
 8001a24:	0019      	movs	r1, r3
 8001a26:	6800      	ldr	r0, [r0, #0]
 8001a28:	3304      	adds	r3, #4
 8001a2a:	6008      	str	r0, [r1, #0]
 8001a2c:	4293      	cmp	r3, r2
 8001a2e:	d1f7      	bne.n	8001a20 <IAP_Set+0x8>
 8001a30:	2001      	movs	r0, #1
 8001a32:	4a0b      	ldr	r2, [pc, #44]	; (8001a60 <IAP_Set+0x48>)
 8001a34:	6991      	ldr	r1, [r2, #24]
 8001a36:	4301      	orrs	r1, r0
 8001a38:	6191      	str	r1, [r2, #24]
 8001a3a:	6993      	ldr	r3, [r2, #24]
 8001a3c:	2203      	movs	r2, #3
 8001a3e:	4003      	ands	r3, r0
 8001a40:	9301      	str	r3, [sp, #4]
 8001a42:	9b01      	ldr	r3, [sp, #4]
 8001a44:	4b07      	ldr	r3, [pc, #28]	; (8001a64 <IAP_Set+0x4c>)
 8001a46:	6819      	ldr	r1, [r3, #0]
 8001a48:	4391      	bics	r1, r2
 8001a4a:	6019      	str	r1, [r3, #0]
 8001a4c:	6819      	ldr	r1, [r3, #0]
 8001a4e:	430a      	orrs	r2, r1
 8001a50:	601a      	str	r2, [r3, #0]
 8001a52:	b002      	add	sp, #8
 8001a54:	4770      	bx	lr
 8001a56:	46c0      	nop			; (mov r8, r8)
 8001a58:	200000c0 	.word	0x200000c0
 8001a5c:	e8001000 	.word	0xe8001000
 8001a60:	40021000 	.word	0x40021000
 8001a64:	40010000 	.word	0x40010000

08001a68 <flash_data_write_back>:
 8001a68:	b570      	push	{r4, r5, r6, lr}
 8001a6a:	4c0c      	ldr	r4, [pc, #48]	; (8001a9c <flash_data_write_back+0x34>)
 8001a6c:	2120      	movs	r1, #32
 8001a6e:	0020      	movs	r0, r4
 8001a70:	f7ff fd7c 	bl	800156c <readPackedMessageFromFlash>
 8001a74:	2800      	cmp	r0, #0
 8001a76:	d101      	bne.n	8001a7c <flash_data_write_back+0x14>
 8001a78:	2000      	movs	r0, #0
 8001a7a:	bd70      	pop	{r4, r5, r6, pc}
 8001a7c:	2515      	movs	r5, #21
 8001a7e:	4b08      	ldr	r3, [pc, #32]	; (8001aa0 <flash_data_write_back+0x38>)
 8001a80:	781b      	ldrb	r3, [r3, #0]
 8001a82:	7023      	strb	r3, [r4, #0]
 8001a84:	2120      	movs	r1, #32
 8001a86:	0020      	movs	r0, r4
 8001a88:	f7ff fd8e 	bl	80015a8 <writeMessageToFlash>
 8001a8c:	2800      	cmp	r0, #0
 8001a8e:	d001      	beq.n	8001a94 <flash_data_write_back+0x2c>
 8001a90:	2001      	movs	r0, #1
 8001a92:	e7f2      	b.n	8001a7a <flash_data_write_back+0x12>
 8001a94:	3d01      	subs	r5, #1
 8001a96:	2d00      	cmp	r5, #0
 8001a98:	d1f4      	bne.n	8001a84 <flash_data_write_back+0x1c>
 8001a9a:	e7ed      	b.n	8001a78 <flash_data_write_back+0x10>
 8001a9c:	200006cd 	.word	0x200006cd
 8001aa0:	200006ed 	.word	0x200006ed

08001aa4 <switchInputAndOutput>:
 8001aa4:	b5f0      	push	{r4, r5, r6, r7, lr}
 8001aa6:	b087      	sub	sp, #28
 8001aa8:	000c      	movs	r4, r1
 8001aaa:	0007      	movs	r7, r0
 8001aac:	0016      	movs	r6, r2
 8001aae:	2100      	movs	r1, #0
 8001ab0:	2214      	movs	r2, #20
 8001ab2:	a801      	add	r0, sp, #4
 8001ab4:	001d      	movs	r5, r3
 8001ab6:	f001 fdd0 	bl	800365a <memset>
 8001aba:	2c03      	cmp	r4, #3
 8001abc:	d109      	bne.n	8001ad2 <switchInputAndOutput+0x2e>
 8001abe:	2080      	movs	r0, #128	; 0x80
 8001ac0:	4a15      	ldr	r2, [pc, #84]	; (8001b18 <switchInputAndOutput+0x74>)
 8001ac2:	0080      	lsls	r0, r0, #2
 8001ac4:	6991      	ldr	r1, [r2, #24]
 8001ac6:	4301      	orrs	r1, r0
 8001ac8:	6191      	str	r1, [r2, #24]
 8001aca:	6993      	ldr	r3, [r2, #24]
 8001acc:	4003      	ands	r3, r0
 8001ace:	9300      	str	r3, [sp, #0]
 8001ad0:	9b00      	ldr	r3, [sp, #0]
 8001ad2:	2090      	movs	r0, #144	; 0x90
 8001ad4:	a901      	add	r1, sp, #4
 8001ad6:	05c0      	lsls	r0, r0, #23
 8001ad8:	9701      	str	r7, [sp, #4]
 8001ada:	9402      	str	r4, [sp, #8]
 8001adc:	9603      	str	r6, [sp, #12]
 8001ade:	9504      	str	r5, [sp, #16]
 8001ae0:	f001 fb50 	bl	8003184 <HAL_GPIO_Init>
 8001ae4:	2c03      	cmp	r4, #3
 8001ae6:	d114      	bne.n	8001b12 <switchInputAndOutput+0x6e>
 8001ae8:	2104      	movs	r1, #4
 8001aea:	480c      	ldr	r0, [pc, #48]	; (8001b1c <switchInputAndOutput+0x78>)
 8001aec:	4b0c      	ldr	r3, [pc, #48]	; (8001b20 <switchInputAndOutput+0x7c>)
 8001aee:	6141      	str	r1, [r0, #20]
 8001af0:	21c2      	movs	r1, #194	; 0xc2
 8001af2:	6003      	str	r3, [r0, #0]
 8001af4:	2300      	movs	r3, #0
 8001af6:	2201      	movs	r2, #1
 8001af8:	31ff      	adds	r1, #255	; 0xff
 8001afa:	61c1      	str	r1, [r0, #28]
 8001afc:	6183      	str	r3, [r0, #24]
 8001afe:	1d41      	adds	r1, r0, #5
 8001b00:	6043      	str	r3, [r0, #4]
 8001b02:	6083      	str	r3, [r0, #8]
 8001b04:	60c3      	str	r3, [r0, #12]
 8001b06:	6102      	str	r2, [r0, #16]
 8001b08:	6203      	str	r3, [r0, #32]
 8001b0a:	77cb      	strb	r3, [r1, #31]
 8001b0c:	6282      	str	r2, [r0, #40]	; 0x28
 8001b0e:	f000 ffc3 	bl	8002a98 <HAL_ADC_Init>
 8001b12:	b007      	add	sp, #28
 8001b14:	bdf0      	pop	{r4, r5, r6, r7, pc}
 8001b16:	46c0      	nop			; (mov r8, r8)
 8001b18:	40021000 	.word	0x40021000
 8001b1c:	200001bc 	.word	0x200001bc
 8001b20:	40012400 	.word	0x40012400

08001b24 <readADCState>:
 8001b24:	b5f0      	push	{r4, r5, r6, r7, lr}
 8001b26:	2400      	movs	r4, #0
 8001b28:	b09f      	sub	sp, #124	; 0x7c
 8001b2a:	0006      	movs	r6, r0
 8001b2c:	2258      	movs	r2, #88	; 0x58
 8001b2e:	000f      	movs	r7, r1
 8001b30:	a808      	add	r0, sp, #32
 8001b32:	2100      	movs	r1, #0
 8001b34:	f001 fd91 	bl	800365a <memset>
 8001b38:	220c      	movs	r2, #12
 8001b3a:	0021      	movs	r1, r4
 8001b3c:	a805      	add	r0, sp, #20
 8001b3e:	9404      	str	r4, [sp, #16]
 8001b40:	f001 fd8b 	bl	800365a <memset>
 8001b44:	4d2e      	ldr	r5, [pc, #184]	; (8001c00 <readADCState+0xdc>)
 8001b46:	a901      	add	r1, sp, #4
 8001b48:	682b      	ldr	r3, [r5, #0]
 8001b4a:	0028      	movs	r0, r5
 8001b4c:	629c      	str	r4, [r3, #40]	; 0x28
 8001b4e:	2380      	movs	r3, #128	; 0x80
 8001b50:	015b      	lsls	r3, r3, #5
 8001b52:	9302      	str	r3, [sp, #8]
 8001b54:	2380      	movs	r3, #128	; 0x80
 8001b56:	055b      	lsls	r3, r3, #21
 8001b58:	9601      	str	r6, [sp, #4]
 8001b5a:	9303      	str	r3, [sp, #12]
 8001b5c:	f001 f8d8 	bl	8002d10 <HAL_ADC_ConfigChannel>
 8001b60:	0028      	movs	r0, r5
 8001b62:	f001 f94f 	bl	8002e04 <HAL_ADCEx_Calibration_Start>
 8001b66:	0026      	movs	r6, r4
 8001b68:	0028      	movs	r0, r5
 8001b6a:	f001 f83d 	bl	8002be8 <HAL_ADC_Start>
 8001b6e:	210a      	movs	r1, #10
 8001b70:	0028      	movs	r0, r5
 8001b72:	f001 f865 	bl	8002c40 <HAL_ADC_PollForConversion>
 8001b76:	0028      	movs	r0, r5
 8001b78:	f001 f942 	bl	8002e00 <HAL_ADC_GetState>
 8001b7c:	2380      	movs	r3, #128	; 0x80
 8001b7e:	009b      	lsls	r3, r3, #2
 8001b80:	4218      	tst	r0, r3
 8001b82:	d008      	beq.n	8001b96 <readADCState+0x72>
 8001b84:	0028      	movs	r0, r5
 8001b86:	f001 f8bf 	bl	8002d08 <HAL_ADC_GetValue>
 8001b8a:	466a      	mov	r2, sp
 8001b8c:	2120      	movs	r1, #32
 8001b8e:	00a3      	lsls	r3, r4, #2
 8001b90:	1852      	adds	r2, r2, r1
 8001b92:	50d0      	str	r0, [r2, r3]
 8001b94:	1836      	adds	r6, r6, r0
 8001b96:	3401      	adds	r4, #1
 8001b98:	2c16      	cmp	r4, #22
 8001b9a:	d1e5      	bne.n	8001b68 <readADCState+0x44>
 8001b9c:	9808      	ldr	r0, [sp, #32]
 8001b9e:	2300      	movs	r3, #0
 8001ba0:	0001      	movs	r1, r0
 8001ba2:	466c      	mov	r4, sp
 8001ba4:	2520      	movs	r5, #32
 8001ba6:	009a      	lsls	r2, r3, #2
 8001ba8:	1964      	adds	r4, r4, r5
 8001baa:	58a2      	ldr	r2, [r4, r2]
 8001bac:	4290      	cmp	r0, r2
 8001bae:	d200      	bcs.n	8001bb2 <readADCState+0x8e>
 8001bb0:	0010      	movs	r0, r2
 8001bb2:	4291      	cmp	r1, r2
 8001bb4:	d900      	bls.n	8001bb8 <readADCState+0x94>
 8001bb6:	0011      	movs	r1, r2
 8001bb8:	3301      	adds	r3, #1
 8001bba:	2b16      	cmp	r3, #22
 8001bbc:	d1f1      	bne.n	8001ba2 <readADCState+0x7e>
 8001bbe:	1840      	adds	r0, r0, r1
 8001bc0:	1a30      	subs	r0, r6, r0
 8001bc2:	2114      	movs	r1, #20
 8001bc4:	f7ff faaa 	bl	800111c <__udivsi3>
 8001bc8:	ac04      	add	r4, sp, #16
 8001bca:	2f0c      	cmp	r7, #12
 8001bcc:	d108      	bne.n	8001be0 <readADCState+0xbc>
 8001bce:	2102      	movs	r1, #2
 8001bd0:	7020      	strb	r0, [r4, #0]
 8001bd2:	0a00      	lsrs	r0, r0, #8
 8001bd4:	7060      	strb	r0, [r4, #1]
 8001bd6:	0020      	movs	r0, r4
 8001bd8:	f7ff fe22 	bl	8001820 <i2c1_set_send_data>
 8001bdc:	b01f      	add	sp, #124	; 0x7c
 8001bde:	bdf0      	pop	{r4, r5, r6, r7, pc}
 8001be0:	2100      	movs	r1, #0
 8001be2:	2f08      	cmp	r7, #8
 8001be4:	d1f7      	bne.n	8001bd6 <readADCState+0xb2>
 8001be6:	2380      	movs	r3, #128	; 0x80
 8001be8:	015b      	lsls	r3, r3, #5
 8001bea:	4298      	cmp	r0, r3
 8001bec:	db00      	blt.n	8001bf0 <readADCState+0xcc>
 8001bee:	4805      	ldr	r0, [pc, #20]	; (8001c04 <readADCState+0xe0>)
 8001bf0:	23ff      	movs	r3, #255	; 0xff
 8001bf2:	4904      	ldr	r1, [pc, #16]	; (8001c04 <readADCState+0xe0>)
 8001bf4:	4358      	muls	r0, r3
 8001bf6:	f7ff fb1b 	bl	8001230 <__divsi3>
 8001bfa:	2101      	movs	r1, #1
 8001bfc:	7020      	strb	r0, [r4, #0]
 8001bfe:	e7ea      	b.n	8001bd6 <readADCState+0xb2>
 8001c00:	200001bc 	.word	0x200001bc
 8001c04:	00000fff 	.word	0x00000fff

08001c08 <Slave_Complete_Callback>:
 8001c08:	b5f0      	push	{r4, r5, r6, r7, lr}
 8001c0a:	2500      	movs	r5, #0
 8001c0c:	b08d      	sub	sp, #52	; 0x34
 8001c0e:	000e      	movs	r6, r1
 8001c10:	0004      	movs	r4, r0
 8001c12:	221c      	movs	r2, #28
 8001c14:	0029      	movs	r1, r5
 8001c16:	a805      	add	r0, sp, #20
 8001c18:	9504      	str	r5, [sp, #16]
 8001c1a:	f001 fd1e 	bl	800365a <memset>
 8001c1e:	2e01      	cmp	r6, #1
 8001c20:	d800      	bhi.n	8001c24 <Slave_Complete_Callback+0x1c>
 8001c22:	e0c4      	b.n	8001dae <Slave_Complete_Callback+0x1a6>
 8001c24:	7823      	ldrb	r3, [r4, #0]
 8001c26:	2b07      	cmp	r3, #7
 8001c28:	d900      	bls.n	8001c2c <Slave_Complete_Callback+0x24>
 8001c2a:	e0d3      	b.n	8001dd4 <Slave_Complete_Callback+0x1cc>
 8001c2c:	2208      	movs	r2, #8
 8001c2e:	1ad3      	subs	r3, r2, r3
 8001c30:	b2da      	uxtb	r2, r3
 8001c32:	b2db      	uxtb	r3, r3
 8001c34:	9201      	str	r2, [sp, #4]
 8001c36:	42b3      	cmp	r3, r6
 8001c38:	d302      	bcc.n	8001c40 <Slave_Complete_Callback+0x38>
 8001c3a:	3e01      	subs	r6, #1
 8001c3c:	b2f3      	uxtb	r3, r6
 8001c3e:	9301      	str	r3, [sp, #4]
 8001c40:	2700      	movs	r7, #0
 8001c42:	2601      	movs	r6, #1
 8001c44:	003d      	movs	r5, r7
 8001c46:	3701      	adds	r7, #1
 8001c48:	5de0      	ldrb	r0, [r4, r7]
 8001c4a:	2805      	cmp	r0, #5
 8001c4c:	d831      	bhi.n	8001cb2 <Slave_Complete_Callback+0xaa>
 8001c4e:	4bcd      	ldr	r3, [pc, #820]	; (8001f84 <Slave_Complete_Callback+0x37c>)
 8001c50:	7822      	ldrb	r2, [r4, #0]
 8001c52:	195b      	adds	r3, r3, r5
 8001c54:	5498      	strb	r0, [r3, r2]
 8001c56:	3801      	subs	r0, #1
 8001c58:	7823      	ldrb	r3, [r4, #0]
 8001c5a:	2804      	cmp	r0, #4
 8001c5c:	d805      	bhi.n	8001c6a <Slave_Complete_Callback+0x62>
 8001c5e:	4aca      	ldr	r2, [pc, #808]	; (8001f88 <Slave_Complete_Callback+0x380>)
 8001c60:	f7ff fa52 	bl	8001108 <__gnu_thumb1_case_uqi>
 8001c64:	613c342c 	.word	0x613c342c
 8001c68:	82          	.byte	0x82
 8001c69:	00          	.byte	0x00
 8001c6a:	0030      	movs	r0, r6
 8001c6c:	195b      	adds	r3, r3, r5
 8001c6e:	4098      	lsls	r0, r3
 8001c70:	2300      	movs	r3, #0
 8001c72:	2201      	movs	r2, #1
 8001c74:	0019      	movs	r1, r3
 8001c76:	b280      	uxth	r0, r0
 8001c78:	f7ff ff14 	bl	8001aa4 <switchInputAndOutput>
 8001c7c:	0030      	movs	r0, r6
 8001c7e:	7822      	ldrb	r2, [r4, #0]
 8001c80:	49c1      	ldr	r1, [pc, #772]	; (8001f88 <Slave_Complete_Callback+0x380>)
 8001c82:	1952      	adds	r2, r2, r5
 8001c84:	4090      	lsls	r0, r2
 8001c86:	780b      	ldrb	r3, [r1, #0]
 8001c88:	4383      	bics	r3, r0
 8001c8a:	0030      	movs	r0, r6
 8001c8c:	700b      	strb	r3, [r1, #0]
 8001c8e:	7822      	ldrb	r2, [r4, #0]
 8001c90:	49be      	ldr	r1, [pc, #760]	; (8001f8c <Slave_Complete_Callback+0x384>)
 8001c92:	1952      	adds	r2, r2, r5
 8001c94:	4090      	lsls	r0, r2
 8001c96:	780b      	ldrb	r3, [r1, #0]
 8001c98:	4abd      	ldr	r2, [pc, #756]	; (8001f90 <Slave_Complete_Callback+0x388>)
 8001c9a:	4383      	bics	r3, r0
 8001c9c:	700b      	strb	r3, [r1, #0]
 8001c9e:	7823      	ldrb	r3, [r4, #0]
 8001ca0:	195b      	adds	r3, r3, r5
 8001ca2:	54d6      	strb	r6, [r2, r3]
 8001ca4:	4bbb      	ldr	r3, [pc, #748]	; (8001f94 <Slave_Complete_Callback+0x38c>)
 8001ca6:	7822      	ldrb	r2, [r4, #0]
 8001ca8:	195d      	adds	r5, r3, r5
 8001caa:	54ae      	strb	r6, [r5, r2]
 8001cac:	2200      	movs	r2, #0
 8001cae:	4bba      	ldr	r3, [pc, #744]	; (8001f98 <Slave_Complete_Callback+0x390>)
 8001cb0:	801a      	strh	r2, [r3, #0]
 8001cb2:	9b01      	ldr	r3, [sp, #4]
 8001cb4:	429f      	cmp	r7, r3
 8001cb6:	dbc5      	blt.n	8001c44 <Slave_Complete_Callback+0x3c>
 8001cb8:	b00d      	add	sp, #52	; 0x34
 8001cba:	bdf0      	pop	{r4, r5, r6, r7, pc}
 8001cbc:	0030      	movs	r0, r6
 8001cbe:	195b      	adds	r3, r3, r5
 8001cc0:	4098      	lsls	r0, r3
 8001cc2:	2300      	movs	r3, #0
 8001cc4:	0031      	movs	r1, r6
 8001cc6:	001a      	movs	r2, r3
 8001cc8:	b280      	uxth	r0, r0
 8001cca:	e7d5      	b.n	8001c78 <Slave_Complete_Callback+0x70>
 8001ccc:	0030      	movs	r0, r6
 8001cce:	195b      	adds	r3, r3, r5
 8001cd0:	4098      	lsls	r0, r3
 8001cd2:	2300      	movs	r3, #0
 8001cd4:	2103      	movs	r1, #3
 8001cd6:	001a      	movs	r2, r3
 8001cd8:	b280      	uxth	r0, r0
 8001cda:	e7cd      	b.n	8001c78 <Slave_Complete_Callback+0x70>
 8001cdc:	0030      	movs	r0, r6
 8001cde:	195b      	adds	r3, r3, r5
 8001ce0:	4098      	lsls	r0, r3
 8001ce2:	2200      	movs	r2, #0
 8001ce4:	2303      	movs	r3, #3
 8001ce6:	0031      	movs	r1, r6
 8001ce8:	b280      	uxth	r0, r0
 8001cea:	f7ff fedb 	bl	8001aa4 <switchInputAndOutput>
 8001cee:	0030      	movs	r0, r6
 8001cf0:	7822      	ldrb	r2, [r4, #0]
 8001cf2:	49a5      	ldr	r1, [pc, #660]	; (8001f88 <Slave_Complete_Callback+0x380>)
 8001cf4:	1952      	adds	r2, r2, r5
 8001cf6:	4090      	lsls	r0, r2
 8001cf8:	780b      	ldrb	r3, [r1, #0]
 8001cfa:	4383      	bics	r3, r0
 8001cfc:	700b      	strb	r3, [r1, #0]
 8001cfe:	0033      	movs	r3, r6
 8001d00:	7822      	ldrb	r2, [r4, #0]
 8001d02:	49a2      	ldr	r1, [pc, #648]	; (8001f8c <Slave_Complete_Callback+0x384>)
 8001d04:	1952      	adds	r2, r2, r5
 8001d06:	4093      	lsls	r3, r2
 8001d08:	2200      	movs	r2, #0
 8001d0a:	7808      	ldrb	r0, [r1, #0]
 8001d0c:	4303      	orrs	r3, r0
 8001d0e:	b2db      	uxtb	r3, r3
 8001d10:	700b      	strb	r3, [r1, #0]
 8001d12:	7823      	ldrb	r3, [r4, #0]
 8001d14:	499e      	ldr	r1, [pc, #632]	; (8001f90 <Slave_Complete_Callback+0x388>)
 8001d16:	195b      	adds	r3, r3, r5
 8001d18:	54ca      	strb	r2, [r1, r3]
 8001d1a:	4b9e      	ldr	r3, [pc, #632]	; (8001f94 <Slave_Complete_Callback+0x38c>)
 8001d1c:	7821      	ldrb	r1, [r4, #0]
 8001d1e:	195d      	adds	r5, r3, r5
 8001d20:	546e      	strb	r6, [r5, r1]
 8001d22:	4b9d      	ldr	r3, [pc, #628]	; (8001f98 <Slave_Complete_Callback+0x390>)
 8001d24:	e7c4      	b.n	8001cb0 <Slave_Complete_Callback+0xa8>
 8001d26:	0030      	movs	r0, r6
 8001d28:	195b      	adds	r3, r3, r5
 8001d2a:	4098      	lsls	r0, r3
 8001d2c:	7811      	ldrb	r1, [r2, #0]
 8001d2e:	4381      	bics	r1, r0
 8001d30:	0030      	movs	r0, r6
 8001d32:	7011      	strb	r1, [r2, #0]
 8001d34:	7822      	ldrb	r2, [r4, #0]
 8001d36:	4995      	ldr	r1, [pc, #596]	; (8001f8c <Slave_Complete_Callback+0x384>)
 8001d38:	1952      	adds	r2, r2, r5
 8001d3a:	4090      	lsls	r0, r2
 8001d3c:	780b      	ldrb	r3, [r1, #0]
 8001d3e:	4a94      	ldr	r2, [pc, #592]	; (8001f90 <Slave_Complete_Callback+0x388>)
 8001d40:	4383      	bics	r3, r0
 8001d42:	700b      	strb	r3, [r1, #0]
 8001d44:	7823      	ldrb	r3, [r4, #0]
 8001d46:	0030      	movs	r0, r6
 8001d48:	195b      	adds	r3, r3, r5
 8001d4a:	54d6      	strb	r6, [r2, r3]
 8001d4c:	4b91      	ldr	r3, [pc, #580]	; (8001f94 <Slave_Complete_Callback+0x38c>)
 8001d4e:	7822      	ldrb	r2, [r4, #0]
 8001d50:	195b      	adds	r3, r3, r5
 8001d52:	549e      	strb	r6, [r3, r2]
 8001d54:	7823      	ldrb	r3, [r4, #0]
 8001d56:	2200      	movs	r2, #0
 8001d58:	195d      	adds	r5, r3, r5
 8001d5a:	2301      	movs	r3, #1
 8001d5c:	40a8      	lsls	r0, r5
 8001d5e:	0019      	movs	r1, r3
 8001d60:	b280      	uxth	r0, r0
 8001d62:	f7ff fe9f 	bl	8001aa4 <switchInputAndOutput>
 8001d66:	e7a4      	b.n	8001cb2 <Slave_Complete_Callback+0xaa>
 8001d68:	0030      	movs	r0, r6
 8001d6a:	195b      	adds	r3, r3, r5
 8001d6c:	4098      	lsls	r0, r3
 8001d6e:	0003      	movs	r3, r0
 8001d70:	0030      	movs	r0, r6
 8001d72:	7811      	ldrb	r1, [r2, #0]
 8001d74:	430b      	orrs	r3, r1
 8001d76:	b2db      	uxtb	r3, r3
 8001d78:	7013      	strb	r3, [r2, #0]
 8001d7a:	7822      	ldrb	r2, [r4, #0]
 8001d7c:	4983      	ldr	r1, [pc, #524]	; (8001f8c <Slave_Complete_Callback+0x384>)
 8001d7e:	1952      	adds	r2, r2, r5
 8001d80:	4090      	lsls	r0, r2
 8001d82:	780b      	ldrb	r3, [r1, #0]
 8001d84:	4a82      	ldr	r2, [pc, #520]	; (8001f90 <Slave_Complete_Callback+0x388>)
 8001d86:	4383      	bics	r3, r0
 8001d88:	700b      	strb	r3, [r1, #0]
 8001d8a:	7823      	ldrb	r3, [r4, #0]
 8001d8c:	0030      	movs	r0, r6
 8001d8e:	195b      	adds	r3, r3, r5
 8001d90:	54d6      	strb	r6, [r2, r3]
 8001d92:	2200      	movs	r2, #0
 8001d94:	4b7f      	ldr	r3, [pc, #508]	; (8001f94 <Slave_Complete_Callback+0x38c>)
 8001d96:	7821      	ldrb	r1, [r4, #0]
 8001d98:	195b      	adds	r3, r3, r5
 8001d9a:	545a      	strb	r2, [r3, r1]
 8001d9c:	4b7e      	ldr	r3, [pc, #504]	; (8001f98 <Slave_Complete_Callback+0x390>)
 8001d9e:	2101      	movs	r1, #1
 8001da0:	801a      	strh	r2, [r3, #0]
 8001da2:	7823      	ldrb	r3, [r4, #0]
 8001da4:	195d      	adds	r5, r3, r5
 8001da6:	40a8      	lsls	r0, r5
 8001da8:	2303      	movs	r3, #3
 8001daa:	b280      	uxth	r0, r0
 8001dac:	e7d9      	b.n	8001d62 <Slave_Complete_Callback+0x15a>
 8001dae:	2e01      	cmp	r6, #1
 8001db0:	d000      	beq.n	8001db4 <Slave_Complete_Callback+0x1ac>
 8001db2:	e781      	b.n	8001cb8 <Slave_Complete_Callback+0xb0>
 8001db4:	7827      	ldrb	r7, [r4, #0]
 8001db6:	2f07      	cmp	r7, #7
 8001db8:	d852      	bhi.n	8001e60 <Slave_Complete_Callback+0x258>
 8001dba:	2408      	movs	r4, #8
 8001dbc:	4971      	ldr	r1, [pc, #452]	; (8001f84 <Slave_Complete_Callback+0x37c>)
 8001dbe:	0022      	movs	r2, r4
 8001dc0:	a804      	add	r0, sp, #16
 8001dc2:	f001 fc41 	bl	8003648 <memcpy>
 8001dc6:	1be1      	subs	r1, r4, r7
 8001dc8:	ab04      	add	r3, sp, #16
 8001dca:	b289      	uxth	r1, r1
 8001dcc:	19d8      	adds	r0, r3, r7
 8001dce:	f7ff fd27 	bl	8001820 <i2c1_set_send_data>
 8001dd2:	e771      	b.n	8001cb8 <Slave_Complete_Callback+0xb0>
 8001dd4:	001a      	movs	r2, r3
 8001dd6:	3a10      	subs	r2, #16
 8001dd8:	b2d2      	uxtb	r2, r2
 8001dda:	2a07      	cmp	r2, #7
 8001ddc:	d827      	bhi.n	8001e2e <Slave_Complete_Callback+0x226>
 8001dde:	2308      	movs	r3, #8
 8001de0:	1a9b      	subs	r3, r3, r2
 8001de2:	b2df      	uxtb	r7, r3
 8001de4:	b2db      	uxtb	r3, r3
 8001de6:	42b3      	cmp	r3, r6
 8001de8:	d301      	bcc.n	8001dee <Slave_Complete_Callback+0x1e6>
 8001dea:	3e01      	subs	r6, #1
 8001dec:	b2f7      	uxtb	r7, r6
 8001dee:	2690      	movs	r6, #144	; 0x90
 8001df0:	2500      	movs	r5, #0
 8001df2:	05f6      	lsls	r6, r6, #23
 8001df4:	7823      	ldrb	r3, [r4, #0]
 8001df6:	4a63      	ldr	r2, [pc, #396]	; (8001f84 <Slave_Complete_Callback+0x37c>)
 8001df8:	0028      	movs	r0, r5
 8001dfa:	18d2      	adds	r2, r2, r3
 8001dfc:	1952      	adds	r2, r2, r5
 8001dfe:	3a10      	subs	r2, #16
 8001e00:	7811      	ldrb	r1, [r2, #0]
 8001e02:	3501      	adds	r5, #1
 8001e04:	2901      	cmp	r1, #1
 8001e06:	d10c      	bne.n	8001e22 <Slave_Complete_Callback+0x21a>
 8001e08:	5d62      	ldrb	r2, [r4, r5]
 8001e0a:	2a00      	cmp	r2, #0
 8001e0c:	d00c      	beq.n	8001e28 <Slave_Complete_Callback+0x220>
 8001e0e:	2a01      	cmp	r2, #1
 8001e10:	d107      	bne.n	8001e22 <Slave_Complete_Callback+0x21a>
 8001e12:	0011      	movs	r1, r2
 8001e14:	181b      	adds	r3, r3, r0
 8001e16:	3b10      	subs	r3, #16
 8001e18:	4099      	lsls	r1, r3
 8001e1a:	0030      	movs	r0, r6
 8001e1c:	b289      	uxth	r1, r1
 8001e1e:	f001 fa6d 	bl	80032fc <HAL_GPIO_WritePin>
 8001e22:	42af      	cmp	r7, r5
 8001e24:	dce6      	bgt.n	8001df4 <Slave_Complete_Callback+0x1ec>
 8001e26:	e747      	b.n	8001cb8 <Slave_Complete_Callback+0xb0>
 8001e28:	181b      	adds	r3, r3, r0
 8001e2a:	3b10      	subs	r3, #16
 8001e2c:	e7f4      	b.n	8001e18 <Slave_Complete_Callback+0x210>
 8001e2e:	2b18      	cmp	r3, #24
 8001e30:	d157      	bne.n	8001ee2 <Slave_Complete_Callback+0x2da>
 8001e32:	2690      	movs	r6, #144	; 0x90
 8001e34:	05f6      	lsls	r6, r6, #23
 8001e36:	4b53      	ldr	r3, [pc, #332]	; (8001f84 <Slave_Complete_Callback+0x37c>)
 8001e38:	5ceb      	ldrb	r3, [r5, r3]
 8001e3a:	2b01      	cmp	r3, #1
 8001e3c:	d10c      	bne.n	8001e58 <Slave_Complete_Callback+0x250>
 8001e3e:	7860      	ldrb	r0, [r4, #1]
 8001e40:	0019      	movs	r1, r3
 8001e42:	4128      	asrs	r0, r5
 8001e44:	40a9      	lsls	r1, r5
 8001e46:	0002      	movs	r2, r0
 8001e48:	b289      	uxth	r1, r1
 8001e4a:	401a      	ands	r2, r3
 8001e4c:	4218      	tst	r0, r3
 8001e4e:	d000      	beq.n	8001e52 <Slave_Complete_Callback+0x24a>
 8001e50:	001a      	movs	r2, r3
 8001e52:	0030      	movs	r0, r6
 8001e54:	f001 fa52 	bl	80032fc <HAL_GPIO_WritePin>
 8001e58:	3501      	adds	r5, #1
 8001e5a:	2d08      	cmp	r5, #8
 8001e5c:	d1eb      	bne.n	8001e36 <Slave_Complete_Callback+0x22e>
 8001e5e:	e72b      	b.n	8001cb8 <Slave_Complete_Callback+0xb0>
 8001e60:	003b      	movs	r3, r7
 8001e62:	3b20      	subs	r3, #32
 8001e64:	2b08      	cmp	r3, #8
 8001e66:	d821      	bhi.n	8001eac <Slave_Complete_Callback+0x2a4>
 8001e68:	4f4c      	ldr	r7, [pc, #304]	; (8001f9c <Slave_Complete_Callback+0x394>)
 8001e6a:	703d      	strb	r5, [r7, #0]
 8001e6c:	0031      	movs	r1, r6
 8001e6e:	2090      	movs	r0, #144	; 0x90
 8001e70:	40a9      	lsls	r1, r5
 8001e72:	05c0      	lsls	r0, r0, #23
 8001e74:	b289      	uxth	r1, r1
 8001e76:	f001 fa3b 	bl	80032f0 <HAL_GPIO_ReadPin>
 8001e7a:	4949      	ldr	r1, [pc, #292]	; (8001fa0 <Slave_Complete_Callback+0x398>)
 8001e7c:	783b      	ldrb	r3, [r7, #0]
 8001e7e:	5468      	strb	r0, [r5, r1]
 8001e80:	40a8      	lsls	r0, r5
 8001e82:	4318      	orrs	r0, r3
 8001e84:	b2c0      	uxtb	r0, r0
 8001e86:	3501      	adds	r5, #1
 8001e88:	7038      	strb	r0, [r7, #0]
 8001e8a:	2d08      	cmp	r5, #8
 8001e8c:	d1ee      	bne.n	8001e6c <Slave_Complete_Callback+0x264>
 8001e8e:	002a      	movs	r2, r5
 8001e90:	a804      	add	r0, sp, #16
 8001e92:	f001 fbd9 	bl	8003648 <memcpy>
 8001e96:	2129      	movs	r1, #41	; 0x29
 8001e98:	7820      	ldrb	r0, [r4, #0]
 8001e9a:	783b      	ldrb	r3, [r7, #0]
 8001e9c:	1a09      	subs	r1, r1, r0
 8001e9e:	aa02      	add	r2, sp, #8
 8001ea0:	7413      	strb	r3, [r2, #16]
 8001ea2:	b289      	uxth	r1, r1
 8001ea4:	3820      	subs	r0, #32
 8001ea6:	ab04      	add	r3, sp, #16
 8001ea8:	1818      	adds	r0, r3, r0
 8001eaa:	e790      	b.n	8001dce <Slave_Complete_Callback+0x1c6>
 8001eac:	0038      	movs	r0, r7
 8001eae:	3830      	subs	r0, #48	; 0x30
 8001eb0:	b2c0      	uxtb	r0, r0
 8001eb2:	2807      	cmp	r0, #7
 8001eb4:	d808      	bhi.n	8001ec8 <Slave_Complete_Callback+0x2c0>
 8001eb6:	4b33      	ldr	r3, [pc, #204]	; (8001f84 <Slave_Complete_Callback+0x37c>)
 8001eb8:	2108      	movs	r1, #8
 8001eba:	5c1b      	ldrb	r3, [r3, r0]
 8001ebc:	2b02      	cmp	r3, #2
 8001ebe:	d000      	beq.n	8001ec2 <Slave_Complete_Callback+0x2ba>
 8001ec0:	e6fa      	b.n	8001cb8 <Slave_Complete_Callback+0xb0>
 8001ec2:	f7ff fe2f 	bl	8001b24 <readADCState>
 8001ec6:	e6f7      	b.n	8001cb8 <Slave_Complete_Callback+0xb0>
 8001ec8:	0038      	movs	r0, r7
 8001eca:	3840      	subs	r0, #64	; 0x40
 8001ecc:	b2c3      	uxtb	r3, r0
 8001ece:	2b0f      	cmp	r3, #15
 8001ed0:	d820      	bhi.n	8001f14 <Slave_Complete_Callback+0x30c>
 8001ed2:	4b2c      	ldr	r3, [pc, #176]	; (8001f84 <Slave_Complete_Callback+0x37c>)
 8001ed4:	1040      	asrs	r0, r0, #1
 8001ed6:	5c1b      	ldrb	r3, [r3, r0]
 8001ed8:	2b02      	cmp	r3, #2
 8001eda:	d000      	beq.n	8001ede <Slave_Complete_Callback+0x2d6>
 8001edc:	e6ec      	b.n	8001cb8 <Slave_Complete_Callback+0xb0>
 8001ede:	210c      	movs	r1, #12
 8001ee0:	e7ef      	b.n	8001ec2 <Slave_Complete_Callback+0x2ba>
 8001ee2:	001a      	movs	r2, r3
 8001ee4:	3a50      	subs	r2, #80	; 0x50
 8001ee6:	b2d2      	uxtb	r2, r2
 8001ee8:	2a07      	cmp	r2, #7
 8001eea:	d823      	bhi.n	8001f34 <Slave_Complete_Callback+0x32c>
 8001eec:	2308      	movs	r3, #8
 8001eee:	1a9b      	subs	r3, r3, r2
 8001ef0:	b2dd      	uxtb	r5, r3
 8001ef2:	b2db      	uxtb	r3, r3
 8001ef4:	42b3      	cmp	r3, r6
 8001ef6:	d301      	bcc.n	8001efc <Slave_Complete_Callback+0x2f4>
 8001ef8:	3e01      	subs	r6, #1
 8001efa:	b2f5      	uxtb	r5, r6
 8001efc:	2600      	movs	r6, #0
 8001efe:	7820      	ldrb	r0, [r4, #0]
 8001f00:	3850      	subs	r0, #80	; 0x50
 8001f02:	1980      	adds	r0, r0, r6
 8001f04:	3601      	adds	r6, #1
 8001f06:	5da1      	ldrb	r1, [r4, r6]
 8001f08:	b2c0      	uxtb	r0, r0
 8001f0a:	f7ff faa7 	bl	800145c <SetSteerAngle>
 8001f0e:	42ae      	cmp	r6, r5
 8001f10:	dbf5      	blt.n	8001efe <Slave_Complete_Callback+0x2f6>
 8001f12:	e6d1      	b.n	8001cb8 <Slave_Complete_Callback+0xb0>
 8001f14:	003c      	movs	r4, r7
 8001f16:	3c50      	subs	r4, #80	; 0x50
 8001f18:	b2e3      	uxtb	r3, r4
 8001f1a:	2b07      	cmp	r3, #7
 8001f1c:	d844      	bhi.n	8001fa8 <Slave_Complete_Callback+0x3a0>
 8001f1e:	4921      	ldr	r1, [pc, #132]	; (8001fa4 <Slave_Complete_Callback+0x39c>)
 8001f20:	2208      	movs	r2, #8
 8001f22:	a804      	add	r0, sp, #16
 8001f24:	f001 fb90 	bl	8003648 <memcpy>
 8001f28:	2158      	movs	r1, #88	; 0x58
 8001f2a:	1bc9      	subs	r1, r1, r7
 8001f2c:	ab04      	add	r3, sp, #16
 8001f2e:	b289      	uxth	r1, r1
 8001f30:	1918      	adds	r0, r3, r4
 8001f32:	e74c      	b.n	8001dce <Slave_Complete_Callback+0x1c6>
 8001f34:	001a      	movs	r2, r3
 8001f36:	3a60      	subs	r2, #96	; 0x60
 8001f38:	b2d1      	uxtb	r1, r2
 8001f3a:	290f      	cmp	r1, #15
 8001f3c:	d840      	bhi.n	8001fc0 <Slave_Complete_Callback+0x3b8>
 8001f3e:	2308      	movs	r3, #8
 8001f40:	1052      	asrs	r2, r2, #1
 8001f42:	3e01      	subs	r6, #1
 8001f44:	1a9b      	subs	r3, r3, r2
 8001f46:	1076      	asrs	r6, r6, #1
 8001f48:	1c1d      	adds	r5, r3, #0
 8001f4a:	b2f2      	uxtb	r2, r6
 8001f4c:	b2db      	uxtb	r3, r3
 8001f4e:	4293      	cmp	r3, r2
 8001f50:	d900      	bls.n	8001f54 <Slave_Complete_Callback+0x34c>
 8001f52:	1c35      	adds	r5, r6, #0
 8001f54:	0026      	movs	r6, r4
 8001f56:	b2ed      	uxtb	r5, r5
 8001f58:	006d      	lsls	r5, r5, #1
 8001f5a:	1965      	adds	r5, r4, r5
 8001f5c:	42b5      	cmp	r5, r6
 8001f5e:	d100      	bne.n	8001f62 <Slave_Complete_Callback+0x35a>
 8001f60:	e6aa      	b.n	8001cb8 <Slave_Complete_Callback+0xb0>
 8001f62:	78b1      	ldrb	r1, [r6, #2]
 8001f64:	7873      	ldrb	r3, [r6, #1]
 8001f66:	7820      	ldrb	r0, [r4, #0]
 8001f68:	0209      	lsls	r1, r1, #8
 8001f6a:	4319      	orrs	r1, r3
 8001f6c:	1b33      	subs	r3, r6, r4
 8001f6e:	18c3      	adds	r3, r0, r3
 8001f70:	3b60      	subs	r3, #96	; 0x60
 8001f72:	0fd8      	lsrs	r0, r3, #31
 8001f74:	18c0      	adds	r0, r0, r3
 8001f76:	1040      	asrs	r0, r0, #1
 8001f78:	b2c0      	uxtb	r0, r0
 8001f7a:	f7ff fa87 	bl	800148c <SetSteerPulse>
 8001f7e:	3602      	adds	r6, #2
 8001f80:	e7ec      	b.n	8001f5c <Slave_Complete_Callback+0x354>
 8001f82:	46c0      	nop			; (mov r8, r8)
 8001f84:	200006fe 	.word	0x200006fe
 8001f88:	200006cb 	.word	0x200006cb
 8001f8c:	200006cc 	.word	0x200006cc
 8001f90:	2000072a 	.word	0x2000072a
 8001f94:	2000070a 	.word	0x2000070a
 8001f98:	20000708 	.word	0x20000708
 8001f9c:	200006f5 	.word	0x200006f5
 8001fa0:	200006f6 	.word	0x200006f6
 8001fa4:	20000722 	.word	0x20000722
 8001fa8:	003c      	movs	r4, r7
 8001faa:	3c60      	subs	r4, #96	; 0x60
 8001fac:	b2e3      	uxtb	r3, r4
 8001fae:	2b0f      	cmp	r3, #15
 8001fb0:	d83c      	bhi.n	800202c <Slave_Complete_Callback+0x424>
 8001fb2:	4972      	ldr	r1, [pc, #456]	; (800217c <Slave_Complete_Callback+0x574>)
 8001fb4:	2210      	movs	r2, #16
 8001fb6:	a804      	add	r0, sp, #16
 8001fb8:	f001 fb46 	bl	8003648 <memcpy>
 8001fbc:	2170      	movs	r1, #112	; 0x70
 8001fbe:	e7b4      	b.n	8001f2a <Slave_Complete_Callback+0x322>
 8001fc0:	0018      	movs	r0, r3
 8001fc2:	3870      	subs	r0, #112	; 0x70
 8001fc4:	b2c0      	uxtb	r0, r0
 8001fc6:	2817      	cmp	r0, #23
 8001fc8:	d852      	bhi.n	8002070 <Slave_Complete_Callback+0x468>
 8001fca:	2103      	movs	r1, #3
 8001fcc:	f7ff f8a6 	bl	800111c <__udivsi3>
 8001fd0:	2508      	movs	r5, #8
 8001fd2:	2103      	movs	r1, #3
 8001fd4:	1a2d      	subs	r5, r5, r0
 8001fd6:	1e70      	subs	r0, r6, #1
 8001fd8:	f7ff f92a 	bl	8001230 <__divsi3>
 8001fdc:	1c2b      	adds	r3, r5, #0
 8001fde:	b2c2      	uxtb	r2, r0
 8001fe0:	b2ed      	uxtb	r5, r5
 8001fe2:	4295      	cmp	r5, r2
 8001fe4:	d900      	bls.n	8001fe8 <Slave_Complete_Callback+0x3e0>
 8001fe6:	1c03      	adds	r3, r0, #0
 8001fe8:	2203      	movs	r2, #3
 8001fea:	0025      	movs	r5, r4
 8001fec:	2701      	movs	r7, #1
 8001fee:	b2db      	uxtb	r3, r3
 8001ff0:	4353      	muls	r3, r2
 8001ff2:	18e3      	adds	r3, r4, r3
 8001ff4:	9301      	str	r3, [sp, #4]
 8001ff6:	9b01      	ldr	r3, [sp, #4]
 8001ff8:	42ab      	cmp	r3, r5
 8001ffa:	d100      	bne.n	8001ffe <Slave_Complete_Callback+0x3f6>
 8001ffc:	e65c      	b.n	8001cb8 <Slave_Complete_Callback+0xb0>
 8001ffe:	786e      	ldrb	r6, [r5, #1]
 8002000:	78ab      	ldrb	r3, [r5, #2]
 8002002:	0636      	lsls	r6, r6, #24
 8002004:	041b      	lsls	r3, r3, #16
 8002006:	431e      	orrs	r6, r3
 8002008:	78eb      	ldrb	r3, [r5, #3]
 800200a:	7820      	ldrb	r0, [r4, #0]
 800200c:	021b      	lsls	r3, r3, #8
 800200e:	431e      	orrs	r6, r3
 8002010:	1b2b      	subs	r3, r5, r4
 8002012:	18c0      	adds	r0, r0, r3
 8002014:	2103      	movs	r1, #3
 8002016:	3870      	subs	r0, #112	; 0x70
 8002018:	f7ff f90a 	bl	8001230 <__divsi3>
 800201c:	0031      	movs	r1, r6
 800201e:	b2c0      	uxtb	r0, r0
 8002020:	f000 fbe0 	bl	80027e4 <neopixel_set_color>
 8002024:	4b56      	ldr	r3, [pc, #344]	; (8002180 <Slave_Complete_Callback+0x578>)
 8002026:	3503      	adds	r5, #3
 8002028:	701f      	strb	r7, [r3, #0]
 800202a:	e7e4      	b.n	8001ff6 <Slave_Complete_Callback+0x3ee>
 800202c:	003e      	movs	r6, r7
 800202e:	3e70      	subs	r6, #112	; 0x70
 8002030:	b2f3      	uxtb	r3, r6
 8002032:	2b1f      	cmp	r3, #31
 8002034:	d835      	bhi.n	80020a2 <Slave_Complete_Callback+0x49a>
 8002036:	4b53      	ldr	r3, [pc, #332]	; (8002184 <Slave_Complete_Callback+0x57c>)
 8002038:	ac04      	add	r4, sp, #16
 800203a:	681b      	ldr	r3, [r3, #0]
 800203c:	9301      	str	r3, [sp, #4]
 800203e:	0028      	movs	r0, r5
 8002040:	2103      	movs	r1, #3
 8002042:	f7ff f8f5 	bl	8001230 <__divsi3>
 8002046:	9b01      	ldr	r3, [sp, #4]
 8002048:	0080      	lsls	r0, r0, #2
 800204a:	1818      	adds	r0, r3, r0
 800204c:	6803      	ldr	r3, [r0, #0]
 800204e:	3503      	adds	r5, #3
 8002050:	0a1b      	lsrs	r3, r3, #8
 8002052:	7023      	strb	r3, [r4, #0]
 8002054:	6803      	ldr	r3, [r0, #0]
 8002056:	0c1b      	lsrs	r3, r3, #16
 8002058:	7063      	strb	r3, [r4, #1]
 800205a:	6803      	ldr	r3, [r0, #0]
 800205c:	70a3      	strb	r3, [r4, #2]
 800205e:	3403      	adds	r4, #3
 8002060:	2d18      	cmp	r5, #24
 8002062:	d1ec      	bne.n	800203e <Slave_Complete_Callback+0x436>
 8002064:	2190      	movs	r1, #144	; 0x90
 8002066:	ab04      	add	r3, sp, #16
 8002068:	1bc9      	subs	r1, r1, r7
 800206a:	b289      	uxth	r1, r1
 800206c:	1998      	adds	r0, r3, r6
 800206e:	e6ae      	b.n	8001dce <Slave_Complete_Callback+0x1c6>
 8002070:	001a      	movs	r2, r3
 8002072:	3270      	adds	r2, #112	; 0x70
 8002074:	b2d2      	uxtb	r2, r2
 8002076:	2a07      	cmp	r2, #7
 8002078:	d82f      	bhi.n	80020da <Slave_Complete_Callback+0x4d2>
 800207a:	2308      	movs	r3, #8
 800207c:	1a9b      	subs	r3, r3, r2
 800207e:	b2dd      	uxtb	r5, r3
 8002080:	b2db      	uxtb	r3, r3
 8002082:	42b3      	cmp	r3, r6
 8002084:	d301      	bcc.n	800208a <Slave_Complete_Callback+0x482>
 8002086:	3e01      	subs	r6, #1
 8002088:	b2f5      	uxtb	r5, r6
 800208a:	2600      	movs	r6, #0
 800208c:	7820      	ldrb	r0, [r4, #0]
 800208e:	3070      	adds	r0, #112	; 0x70
 8002090:	1980      	adds	r0, r0, r6
 8002092:	3601      	adds	r6, #1
 8002094:	5da1      	ldrb	r1, [r4, r6]
 8002096:	b2c0      	uxtb	r0, r0
 8002098:	f7ff fa06 	bl	80014a8 <SetPWMPulse>
 800209c:	42ae      	cmp	r6, r5
 800209e:	dbf5      	blt.n	800208c <Slave_Complete_Callback+0x484>
 80020a0:	e60a      	b.n	8001cb8 <Slave_Complete_Callback+0xb0>
 80020a2:	003b      	movs	r3, r7
 80020a4:	3370      	adds	r3, #112	; 0x70
 80020a6:	b2db      	uxtb	r3, r3
 80020a8:	2b07      	cmp	r3, #7
 80020aa:	d83b      	bhi.n	8002124 <Slave_Complete_Callback+0x51c>
 80020ac:	2400      	movs	r4, #0
 80020ae:	4e36      	ldr	r6, [pc, #216]	; (8002188 <Slave_Complete_Callback+0x580>)
 80020b0:	4d36      	ldr	r5, [pc, #216]	; (800218c <Slave_Complete_Callback+0x584>)
 80020b2:	0062      	lsls	r2, r4, #1
 80020b4:	7833      	ldrb	r3, [r6, #0]
 80020b6:	5b50      	ldrh	r0, [r2, r5]
 80020b8:	4a35      	ldr	r2, [pc, #212]	; (8002190 <Slave_Complete_Callback+0x588>)
 80020ba:	5cd1      	ldrb	r1, [r2, r3]
 80020bc:	f7ff f8b8 	bl	8001230 <__divsi3>
 80020c0:	2208      	movs	r2, #8
 80020c2:	ab02      	add	r3, sp, #8
 80020c4:	189b      	adds	r3, r3, r2
 80020c6:	5518      	strb	r0, [r3, r4]
 80020c8:	3401      	adds	r4, #1
 80020ca:	4294      	cmp	r4, r2
 80020cc:	d1f1      	bne.n	80020b2 <Slave_Complete_Callback+0x4aa>
 80020ce:	2198      	movs	r1, #152	; 0x98
 80020d0:	0038      	movs	r0, r7
 80020d2:	1bc9      	subs	r1, r1, r7
 80020d4:	b289      	uxth	r1, r1
 80020d6:	3890      	subs	r0, #144	; 0x90
 80020d8:	e6e5      	b.n	8001ea6 <Slave_Complete_Callback+0x29e>
 80020da:	2ba0      	cmp	r3, #160	; 0xa0
 80020dc:	d127      	bne.n	800212e <Slave_Complete_Callback+0x526>
 80020de:	7867      	ldrb	r7, [r4, #1]
 80020e0:	2f04      	cmp	r7, #4
 80020e2:	d900      	bls.n	80020e6 <Slave_Complete_Callback+0x4de>
 80020e4:	e5e8      	b.n	8001cb8 <Slave_Complete_Callback+0xb0>
 80020e6:	2400      	movs	r4, #0
 80020e8:	4d27      	ldr	r5, [pc, #156]	; (8002188 <Slave_Complete_Callback+0x580>)
 80020ea:	9402      	str	r4, [sp, #8]
 80020ec:	9403      	str	r4, [sp, #12]
 80020ee:	782b      	ldrb	r3, [r5, #0]
 80020f0:	4926      	ldr	r1, [pc, #152]	; (800218c <Slave_Complete_Callback+0x584>)
 80020f2:	4e27      	ldr	r6, [pc, #156]	; (8002190 <Slave_Complete_Callback+0x588>)
 80020f4:	0062      	lsls	r2, r4, #1
 80020f6:	5a50      	ldrh	r0, [r2, r1]
 80020f8:	5cf1      	ldrb	r1, [r6, r3]
 80020fa:	f7ff f899 	bl	8001230 <__divsi3>
 80020fe:	ab02      	add	r3, sp, #8
 8002100:	5518      	strb	r0, [r3, r4]
 8002102:	3401      	adds	r4, #1
 8002104:	2c08      	cmp	r4, #8
 8002106:	d1f2      	bne.n	80020ee <Slave_Complete_Callback+0x4e6>
 8002108:	2300      	movs	r3, #0
 800210a:	702f      	strb	r7, [r5, #0]
 800210c:	7828      	ldrb	r0, [r5, #0]
 800210e:	aa02      	add	r2, sp, #8
 8002110:	5cd2      	ldrb	r2, [r2, r3]
 8002112:	5c30      	ldrb	r0, [r6, r0]
 8002114:	0059      	lsls	r1, r3, #1
 8002116:	4342      	muls	r2, r0
 8002118:	481c      	ldr	r0, [pc, #112]	; (800218c <Slave_Complete_Callback+0x584>)
 800211a:	3301      	adds	r3, #1
 800211c:	5242      	strh	r2, [r0, r1]
 800211e:	2b08      	cmp	r3, #8
 8002120:	d1f4      	bne.n	800210c <Slave_Complete_Callback+0x504>
 8002122:	e5c9      	b.n	8001cb8 <Slave_Complete_Callback+0xb0>
 8002124:	2fa0      	cmp	r7, #160	; 0xa0
 8002126:	d11d      	bne.n	8002164 <Slave_Complete_Callback+0x55c>
 8002128:	2101      	movs	r1, #1
 800212a:	4817      	ldr	r0, [pc, #92]	; (8002188 <Slave_Complete_Callback+0x580>)
 800212c:	e64f      	b.n	8001dce <Slave_Complete_Callback+0x1c6>
 800212e:	2bff      	cmp	r3, #255	; 0xff
 8002130:	d10e      	bne.n	8002150 <Slave_Complete_Callback+0x548>
 8002132:	2e02      	cmp	r6, #2
 8002134:	d000      	beq.n	8002138 <Slave_Complete_Callback+0x530>
 8002136:	e5bf      	b.n	8001cb8 <Slave_Complete_Callback+0xb0>
 8002138:	2301      	movs	r3, #1
 800213a:	56e3      	ldrsb	r3, [r4, r3]
 800213c:	7862      	ldrb	r2, [r4, #1]
 800213e:	2b00      	cmp	r3, #0
 8002140:	dc00      	bgt.n	8002144 <Slave_Complete_Callback+0x53c>
 8002142:	e5b9      	b.n	8001cb8 <Slave_Complete_Callback+0xb0>
 8002144:	4b13      	ldr	r3, [pc, #76]	; (8002194 <Slave_Complete_Callback+0x58c>)
 8002146:	701a      	strb	r2, [r3, #0]
 8002148:	2201      	movs	r2, #1
 800214a:	4b13      	ldr	r3, [pc, #76]	; (8002198 <Slave_Complete_Callback+0x590>)
 800214c:	701a      	strb	r2, [r3, #0]
 800214e:	e5b3      	b.n	8001cb8 <Slave_Complete_Callback+0xb0>
 8002150:	2bfd      	cmp	r3, #253	; 0xfd
 8002152:	d000      	beq.n	8002156 <Slave_Complete_Callback+0x54e>
 8002154:	e5b0      	b.n	8001cb8 <Slave_Complete_Callback+0xb0>
 8002156:	7863      	ldrb	r3, [r4, #1]
 8002158:	2b01      	cmp	r3, #1
 800215a:	d000      	beq.n	800215e <Slave_Complete_Callback+0x556>
 800215c:	e5ac      	b.n	8001cb8 <Slave_Complete_Callback+0xb0>
 800215e:	4a0f      	ldr	r2, [pc, #60]	; (800219c <Slave_Complete_Callback+0x594>)
 8002160:	7013      	strb	r3, [r2, #0]
 8002162:	e5a9      	b.n	8001cb8 <Slave_Complete_Callback+0xb0>
 8002164:	2fff      	cmp	r7, #255	; 0xff
 8002166:	d102      	bne.n	800216e <Slave_Complete_Callback+0x566>
 8002168:	2101      	movs	r1, #1
 800216a:	480a      	ldr	r0, [pc, #40]	; (8002194 <Slave_Complete_Callback+0x58c>)
 800216c:	e62f      	b.n	8001dce <Slave_Complete_Callback+0x1c6>
 800216e:	2ffe      	cmp	r7, #254	; 0xfe
 8002170:	d000      	beq.n	8002174 <Slave_Complete_Callback+0x56c>
 8002172:	e5a1      	b.n	8001cb8 <Slave_Complete_Callback+0xb0>
 8002174:	2101      	movs	r1, #1
 8002176:	480a      	ldr	r0, [pc, #40]	; (80021a0 <Slave_Complete_Callback+0x598>)
 8002178:	e629      	b.n	8001dce <Slave_Complete_Callback+0x1c6>
 800217a:	46c0      	nop			; (mov r8, r8)
 800217c:	20000732 	.word	0x20000732
 8002180:	20000706 	.word	0x20000706
 8002184:	200007d8 	.word	0x200007d8
 8002188:	200000cc 	.word	0x200000cc
 800218c:	20000712 	.word	0x20000712
 8002190:	200000cd 	.word	0x200000cd
 8002194:	200006ed 	.word	0x200006ed
 8002198:	200006ee 	.word	0x200006ee
 800219c:	200006f4 	.word	0x200006f4
 80021a0:	200000c0 	.word	0x200000c0

080021a4 <Error_Handler>:
 80021a4:	b510      	push	{r4, lr}
 80021a6:	b672      	cpsid	i
 80021a8:	f000 feae 	bl	8002f08 <HAL_NVIC_SystemReset>
 80021ac:	e7fc      	b.n	80021a8 <Error_Handler+0x4>
	...

080021b0 <SystemClock_Config>:
 80021b0:	b5f8      	push	{r3, r4, r5, r6, r7, lr}
 80021b2:	2501      	movs	r5, #1
 80021b4:	27fa      	movs	r7, #250	; 0xfa
 80021b6:	2600      	movs	r6, #0
 80021b8:	4c46      	ldr	r4, [pc, #280]	; (80022d4 <SystemClock_Config+0x124>)
 80021ba:	01ff      	lsls	r7, r7, #7
 80021bc:	6823      	ldr	r3, [r4, #0]
 80021be:	43ab      	bics	r3, r5
 80021c0:	432b      	orrs	r3, r5
 80021c2:	6023      	str	r3, [r4, #0]
 80021c4:	6823      	ldr	r3, [r4, #0]
 80021c6:	422b      	tst	r3, r5
 80021c8:	d05c      	beq.n	8002284 <SystemClock_Config+0xd4>
 80021ca:	4c43      	ldr	r4, [pc, #268]	; (80022d8 <SystemClock_Config+0x128>)
 80021cc:	27fa      	movs	r7, #250	; 0xfa
 80021ce:	6823      	ldr	r3, [r4, #0]
 80021d0:	2602      	movs	r6, #2
 80021d2:	431d      	orrs	r5, r3
 80021d4:	6025      	str	r5, [r4, #0]
 80021d6:	2500      	movs	r5, #0
 80021d8:	01ff      	lsls	r7, r7, #7
 80021da:	6823      	ldr	r3, [r4, #0]
 80021dc:	4233      	tst	r3, r6
 80021de:	d057      	beq.n	8002290 <SystemClock_Config+0xe0>
 80021e0:	22f8      	movs	r2, #248	; 0xf8
 80021e2:	6823      	ldr	r3, [r4, #0]
 80021e4:	27fa      	movs	r7, #250	; 0xfa
 80021e6:	4393      	bics	r3, r2
 80021e8:	001a      	movs	r2, r3
 80021ea:	2380      	movs	r3, #128	; 0x80
 80021ec:	4313      	orrs	r3, r2
 80021ee:	6023      	str	r3, [r4, #0]
 80021f0:	2301      	movs	r3, #1
 80021f2:	2500      	movs	r5, #0
 80021f4:	2602      	movs	r6, #2
 80021f6:	6b62      	ldr	r2, [r4, #52]	; 0x34
 80021f8:	01ff      	lsls	r7, r7, #7
 80021fa:	4313      	orrs	r3, r2
 80021fc:	6363      	str	r3, [r4, #52]	; 0x34
 80021fe:	6b63      	ldr	r3, [r4, #52]	; 0x34
 8002200:	4233      	tst	r3, r6
 8002202:	d04b      	beq.n	800229c <SystemClock_Config+0xec>
 8002204:	22f8      	movs	r2, #248	; 0xf8
 8002206:	6b63      	ldr	r3, [r4, #52]	; 0x34
 8002208:	2680      	movs	r6, #128	; 0x80
 800220a:	4393      	bics	r3, r2
 800220c:	001a      	movs	r2, r3
 800220e:	2380      	movs	r3, #128	; 0x80
 8002210:	4313      	orrs	r3, r2
 8002212:	6363      	str	r3, [r4, #52]	; 0x34
 8002214:	6863      	ldr	r3, [r4, #4]
 8002216:	4a31      	ldr	r2, [pc, #196]	; (80022dc <SystemClock_Config+0x12c>)
 8002218:	27fa      	movs	r7, #250	; 0xfa
 800221a:	401a      	ands	r2, r3
 800221c:	23a0      	movs	r3, #160	; 0xa0
 800221e:	039b      	lsls	r3, r3, #14
 8002220:	4313      	orrs	r3, r2
 8002222:	220f      	movs	r2, #15
 8002224:	6063      	str	r3, [r4, #4]
 8002226:	6ae3      	ldr	r3, [r4, #44]	; 0x2c
 8002228:	2500      	movs	r5, #0
 800222a:	4393      	bics	r3, r2
 800222c:	62e3      	str	r3, [r4, #44]	; 0x2c
 800222e:	2380      	movs	r3, #128	; 0x80
 8002230:	6822      	ldr	r2, [r4, #0]
 8002232:	045b      	lsls	r3, r3, #17
 8002234:	4313      	orrs	r3, r2
 8002236:	6023      	str	r3, [r4, #0]
 8002238:	04b6      	lsls	r6, r6, #18
 800223a:	01ff      	lsls	r7, r7, #7
 800223c:	6823      	ldr	r3, [r4, #0]
 800223e:	4233      	tst	r3, r6
 8002240:	d032      	beq.n	80022a8 <SystemClock_Config+0xf8>
 8002242:	22f0      	movs	r2, #240	; 0xf0
 8002244:	6863      	ldr	r3, [r4, #4]
 8002246:	27fa      	movs	r7, #250	; 0xfa
 8002248:	4393      	bics	r3, r2
 800224a:	6063      	str	r3, [r4, #4]
 800224c:	6863      	ldr	r3, [r4, #4]
 800224e:	4a24      	ldr	r2, [pc, #144]	; (80022e0 <SystemClock_Config+0x130>)
 8002250:	2500      	movs	r5, #0
 8002252:	4013      	ands	r3, r2
 8002254:	2203      	movs	r2, #3
 8002256:	6063      	str	r3, [r4, #4]
 8002258:	6863      	ldr	r3, [r4, #4]
 800225a:	260c      	movs	r6, #12
 800225c:	4393      	bics	r3, r2
 800225e:	001a      	movs	r2, r3
 8002260:	2302      	movs	r3, #2
 8002262:	4313      	orrs	r3, r2
 8002264:	6063      	str	r3, [r4, #4]
 8002266:	01ff      	lsls	r7, r7, #7
 8002268:	6863      	ldr	r3, [r4, #4]
 800226a:	4033      	ands	r3, r6
 800226c:	2b08      	cmp	r3, #8
 800226e:	d121      	bne.n	80022b4 <SystemClock_Config+0x104>
 8002270:	481c      	ldr	r0, [pc, #112]	; (80022e4 <SystemClock_Config+0x134>)
 8002272:	f001 f9af 	bl	80035d4 <LL_SetSystemCoreClock>
 8002276:	2003      	movs	r0, #3
 8002278:	f000 fb66 	bl	8002948 <HAL_InitTick>
 800227c:	2800      	cmp	r0, #0
 800227e:	d01f      	beq.n	80022c0 <SystemClock_Config+0x110>
 8002280:	f7ff ff90 	bl	80021a4 <Error_Handler>
 8002284:	3601      	adds	r6, #1
 8002286:	42be      	cmp	r6, r7
 8002288:	d99c      	bls.n	80021c4 <SystemClock_Config+0x14>
 800228a:	f000 fe3d 	bl	8002f08 <HAL_NVIC_SystemReset>
 800228e:	e799      	b.n	80021c4 <SystemClock_Config+0x14>
 8002290:	3501      	adds	r5, #1
 8002292:	42bd      	cmp	r5, r7
 8002294:	d9a1      	bls.n	80021da <SystemClock_Config+0x2a>
 8002296:	f000 fe37 	bl	8002f08 <HAL_NVIC_SystemReset>
 800229a:	e79e      	b.n	80021da <SystemClock_Config+0x2a>
 800229c:	3501      	adds	r5, #1
 800229e:	42bd      	cmp	r5, r7
 80022a0:	d9ad      	bls.n	80021fe <SystemClock_Config+0x4e>
 80022a2:	f000 fe31 	bl	8002f08 <HAL_NVIC_SystemReset>
 80022a6:	e7aa      	b.n	80021fe <SystemClock_Config+0x4e>
 80022a8:	3501      	adds	r5, #1
 80022aa:	42bd      	cmp	r5, r7
 80022ac:	d9c6      	bls.n	800223c <SystemClock_Config+0x8c>
 80022ae:	f000 fe2b 	bl	8002f08 <HAL_NVIC_SystemReset>
 80022b2:	e7c3      	b.n	800223c <SystemClock_Config+0x8c>
 80022b4:	3501      	adds	r5, #1
 80022b6:	42bd      	cmp	r5, r7
 80022b8:	d9d6      	bls.n	8002268 <SystemClock_Config+0xb8>
 80022ba:	f000 fe25 	bl	8002f08 <HAL_NVIC_SystemReset>
 80022be:	e7d3      	b.n	8002268 <SystemClock_Config+0xb8>
 80022c0:	2204      	movs	r2, #4
 80022c2:	6b63      	ldr	r3, [r4, #52]	; 0x34
 80022c4:	4393      	bics	r3, r2
 80022c6:	6363      	str	r3, [r4, #52]	; 0x34
 80022c8:	6b23      	ldr	r3, [r4, #48]	; 0x30
 80022ca:	320c      	adds	r2, #12
 80022cc:	4393      	bics	r3, r2
 80022ce:	6323      	str	r3, [r4, #48]	; 0x30
 80022d0:	bdf8      	pop	{r3, r4, r5, r6, r7, pc}
 80022d2:	46c0      	nop			; (mov r8, r8)
 80022d4:	40022000 	.word	0x40022000
 80022d8:	40021000 	.word	0x40021000
 80022dc:	ffc2ffff 	.word	0xffc2ffff
 80022e0:	fffff8ff 	.word	0xfffff8ff
 80022e4:	02dc6c00 	.word	0x02dc6c00

080022e8 <main>:
 80022e8:	b5f7      	push	{r0, r1, r2, r4, r5, r6, r7, lr}
 80022ea:	f7ff fb95 	bl	8001a18 <IAP_Set>
 80022ee:	f000 fb4f 	bl	8002990 <HAL_Init>
 80022f2:	f7ff ff5d 	bl	80021b0 <SystemClock_Config>
 80022f6:	f7ff f9bf 	bl	8001678 <MX_GPIO_Init>
 80022fa:	f000 f9d1 	bl	80026a0 <MX_TIM16_Init>
 80022fe:	f000 f9e9 	bl	80026d4 <MX_TIM17_Init>
 8002302:	4da4      	ldr	r5, [pc, #656]	; (8002594 <main+0x2ac>)
 8002304:	2120      	movs	r1, #32
 8002306:	0028      	movs	r0, r5
 8002308:	f7ff f930 	bl	800156c <readPackedMessageFromFlash>
 800230c:	4ba2      	ldr	r3, [pc, #648]	; (8002598 <main+0x2b0>)
 800230e:	1e04      	subs	r4, r0, #0
 8002310:	d143      	bne.n	800239a <main+0xb2>
 8002312:	2245      	movs	r2, #69	; 0x45
 8002314:	701a      	strb	r2, [r3, #0]
 8002316:	702a      	strb	r2, [r5, #0]
 8002318:	2120      	movs	r1, #32
 800231a:	0028      	movs	r0, r5
 800231c:	f7ff f944 	bl	80015a8 <writeMessageToFlash>
 8002320:	2800      	cmp	r0, #0
 8002322:	d034      	beq.n	800238e <main+0xa6>
 8002324:	f7ff f87c 	bl	8001420 <SteerInit>
 8002328:	2008      	movs	r0, #8
 800232a:	f000 fa4d 	bl	80027c8 <sk6812_init>
 800232e:	489b      	ldr	r0, [pc, #620]	; (800259c <main+0x2b4>)
 8002330:	f001 f816 	bl	8003360 <HAL_TIM_Base_Start_IT>
 8002334:	2790      	movs	r7, #144	; 0x90
 8002336:	489a      	ldr	r0, [pc, #616]	; (80025a0 <main+0x2b8>)
 8002338:	f001 f812 	bl	8003360 <HAL_TIM_Base_Start_IT>
 800233c:	f7ff f9b8 	bl	80016b0 <user_i2c_init>
 8002340:	f7ff fa42 	bl	80017c8 <i2c1_it_enable>
 8002344:	05ff      	lsls	r7, r7, #23
 8002346:	4b97      	ldr	r3, [pc, #604]	; (80025a4 <main+0x2bc>)
 8002348:	781b      	ldrb	r3, [r3, #0]
 800234a:	b2da      	uxtb	r2, r3
 800234c:	2b00      	cmp	r3, #0
 800234e:	d027      	beq.n	80023a0 <main+0xb8>
 8002350:	4c95      	ldr	r4, [pc, #596]	; (80025a8 <main+0x2c0>)
 8002352:	0020      	movs	r0, r4
 8002354:	f001 f8ec 	bl	8003530 <LL_I2C_DeInit>
 8002358:	6863      	ldr	r3, [r4, #4]
 800235a:	4a94      	ldr	r2, [pc, #592]	; (80025ac <main+0x2c4>)
 800235c:	488f      	ldr	r0, [pc, #572]	; (800259c <main+0x2b4>)
 800235e:	4013      	ands	r3, r2
 8002360:	2201      	movs	r2, #1
 8002362:	6063      	str	r3, [r4, #4]
 8002364:	6823      	ldr	r3, [r4, #0]
 8002366:	4393      	bics	r3, r2
 8002368:	6023      	str	r3, [r4, #0]
 800236a:	6823      	ldr	r3, [r4, #0]
 800236c:	3207      	adds	r2, #7
 800236e:	4393      	bics	r3, r2
 8002370:	6023      	str	r3, [r4, #0]
 8002372:	f000 ffc9 	bl	8003308 <HAL_TIM_Base_DeInit>
 8002376:	488a      	ldr	r0, [pc, #552]	; (80025a0 <main+0x2b8>)
 8002378:	f000 ffc6 	bl	8003308 <HAL_TIM_Base_DeInit>
 800237c:	f3bf 8f4f 	dsb	sy
 8002380:	4b8b      	ldr	r3, [pc, #556]	; (80025b0 <main+0x2c8>)
 8002382:	4a8c      	ldr	r2, [pc, #560]	; (80025b4 <main+0x2cc>)
 8002384:	60da      	str	r2, [r3, #12]
 8002386:	f3bf 8f4f 	dsb	sy
 800238a:	46c0      	nop			; (mov r8, r8)
 800238c:	e7fd      	b.n	800238a <main+0xa2>
 800238e:	3401      	adds	r4, #1
 8002390:	2c14      	cmp	r4, #20
 8002392:	d9c1      	bls.n	8002318 <main+0x30>
 8002394:	f000 fdb8 	bl	8002f08 <HAL_NVIC_SystemReset>
 8002398:	e7be      	b.n	8002318 <main+0x30>
 800239a:	782a      	ldrb	r2, [r5, #0]
 800239c:	701a      	strb	r2, [r3, #0]
 800239e:	e7c1      	b.n	8002324 <main+0x3c>
 80023a0:	4b85      	ldr	r3, [pc, #532]	; (80025b8 <main+0x2d0>)
 80023a2:	601a      	str	r2, [r3, #0]
 80023a4:	4b85      	ldr	r3, [pc, #532]	; (80025bc <main+0x2d4>)
 80023a6:	781b      	ldrb	r3, [r3, #0]
 80023a8:	2b00      	cmp	r3, #0
 80023aa:	d025      	beq.n	80023f8 <main+0x110>
 80023ac:	4884      	ldr	r0, [pc, #528]	; (80025c0 <main+0x2d8>)
 80023ae:	4b85      	ldr	r3, [pc, #532]	; (80025c4 <main+0x2dc>)
 80023b0:	6a41      	ldr	r1, [r0, #36]	; 0x24
 80023b2:	781b      	ldrb	r3, [r3, #0]
 80023b4:	4c84      	ldr	r4, [pc, #528]	; (80025c8 <main+0x2e0>)
 80023b6:	005b      	lsls	r3, r3, #1
 80023b8:	5b1b      	ldrh	r3, [r3, r4]
 80023ba:	4299      	cmp	r1, r3
 80023bc:	d300      	bcc.n	80023c0 <main+0xd8>
 80023be:	6242      	str	r2, [r0, #36]	; 0x24
 80023c0:	4c7d      	ldr	r4, [pc, #500]	; (80025b8 <main+0x2d0>)
 80023c2:	2600      	movs	r6, #0
 80023c4:	46a4      	mov	ip, r4
 80023c6:	4981      	ldr	r1, [pc, #516]	; (80025cc <main+0x2e4>)
 80023c8:	4b81      	ldr	r3, [pc, #516]	; (80025d0 <main+0x2e8>)
 80023ca:	4a82      	ldr	r2, [pc, #520]	; (80025d4 <main+0x2ec>)
 80023cc:	4664      	mov	r4, ip
 80023ce:	2500      	movs	r5, #0
 80023d0:	6025      	str	r5, [r4, #0]
 80023d2:	4d81      	ldr	r5, [pc, #516]	; (80025d8 <main+0x2f0>)
 80023d4:	0074      	lsls	r4, r6, #1
 80023d6:	5b64      	ldrh	r4, [r4, r5]
 80023d8:	2c00      	cmp	r4, #0
 80023da:	d000      	beq.n	80023de <main+0xf6>
 80023dc:	e095      	b.n	800250a <main+0x222>
 80023de:	7815      	ldrb	r5, [r2, #0]
 80023e0:	2d00      	cmp	r5, #0
 80023e2:	d000      	beq.n	80023e6 <main+0xfe>
 80023e4:	e091      	b.n	800250a <main+0x222>
 80023e6:	888c      	ldrh	r4, [r1, #4]
 80023e8:	62bc      	str	r4, [r7, #40]	; 0x28
 80023ea:	701d      	strb	r5, [r3, #0]
 80023ec:	3601      	adds	r6, #1
 80023ee:	3108      	adds	r1, #8
 80023f0:	3301      	adds	r3, #1
 80023f2:	3201      	adds	r2, #1
 80023f4:	2e08      	cmp	r6, #8
 80023f6:	d1e9      	bne.n	80023cc <main+0xe4>
 80023f8:	4b78      	ldr	r3, [pc, #480]	; (80025dc <main+0x2f4>)
 80023fa:	781b      	ldrb	r3, [r3, #0]
 80023fc:	2b00      	cmp	r3, #0
 80023fe:	d028      	beq.n	8002452 <main+0x16a>
 8002400:	4877      	ldr	r0, [pc, #476]	; (80025e0 <main+0x2f8>)
 8002402:	4b78      	ldr	r3, [pc, #480]	; (80025e4 <main+0x2fc>)
 8002404:	6a42      	ldr	r2, [r0, #36]	; 0x24
 8002406:	429a      	cmp	r2, r3
 8002408:	d901      	bls.n	800240e <main+0x126>
 800240a:	2300      	movs	r3, #0
 800240c:	6243      	str	r3, [r0, #36]	; 0x24
 800240e:	4c6a      	ldr	r4, [pc, #424]	; (80025b8 <main+0x2d0>)
 8002410:	2300      	movs	r3, #0
 8002412:	46a4      	mov	ip, r4
 8002414:	496d      	ldr	r1, [pc, #436]	; (80025cc <main+0x2e4>)
 8002416:	4a6e      	ldr	r2, [pc, #440]	; (80025d0 <main+0x2e8>)
 8002418:	4665      	mov	r5, ip
 800241a:	2600      	movs	r6, #0
 800241c:	602e      	str	r6, [r5, #0]
 800241e:	6a45      	ldr	r5, [r0, #36]	; 0x24
 8002420:	4e71      	ldr	r6, [pc, #452]	; (80025e8 <main+0x300>)
 8002422:	002c      	movs	r4, r5
 8002424:	005d      	lsls	r5, r3, #1
 8002426:	5bae      	ldrh	r6, [r5, r6]
 8002428:	42b4      	cmp	r4, r6
 800242a:	d900      	bls.n	800242e <main+0x146>
 800242c:	e097      	b.n	800255e <main+0x276>
 800242e:	7816      	ldrb	r6, [r2, #0]
 8002430:	2e00      	cmp	r6, #0
 8002432:	d000      	beq.n	8002436 <main+0x14e>
 8002434:	e093      	b.n	800255e <main+0x276>
 8002436:	4e6d      	ldr	r6, [pc, #436]	; (80025ec <main+0x304>)
 8002438:	5cf6      	ldrb	r6, [r6, r3]
 800243a:	2e00      	cmp	r6, #0
 800243c:	d000      	beq.n	8002440 <main+0x158>
 800243e:	e08e      	b.n	800255e <main+0x276>
 8002440:	2401      	movs	r4, #1
 8002442:	888d      	ldrh	r5, [r1, #4]
 8002444:	61bd      	str	r5, [r7, #24]
 8002446:	7014      	strb	r4, [r2, #0]
 8002448:	3301      	adds	r3, #1
 800244a:	3108      	adds	r1, #8
 800244c:	3201      	adds	r2, #1
 800244e:	2b08      	cmp	r3, #8
 8002450:	d1e2      	bne.n	8002418 <main+0x130>
 8002452:	4e67      	ldr	r6, [pc, #412]	; (80025f0 <main+0x308>)
 8002454:	4d67      	ldr	r5, [pc, #412]	; (80025f4 <main+0x30c>)
 8002456:	6833      	ldr	r3, [r6, #0]
 8002458:	2b00      	cmp	r3, #0
 800245a:	d00c      	beq.n	8002476 <main+0x18e>
 800245c:	f000 fab4 	bl	80029c8 <HAL_GetTick>
 8002460:	4c65      	ldr	r4, [pc, #404]	; (80025f8 <main+0x310>)
 8002462:	6823      	ldr	r3, [r4, #0]
 8002464:	4298      	cmp	r0, r3
 8002466:	d906      	bls.n	8002476 <main+0x18e>
 8002468:	682b      	ldr	r3, [r5, #0]
 800246a:	3301      	adds	r3, #1
 800246c:	602b      	str	r3, [r5, #0]
 800246e:	f000 faab 	bl	80029c8 <HAL_GetTick>
 8002472:	300a      	adds	r0, #10
 8002474:	6020      	str	r0, [r4, #0]
 8002476:	682b      	ldr	r3, [r5, #0]
 8002478:	2b32      	cmp	r3, #50	; 0x32
 800247a:	d91a      	bls.n	80024b2 <main+0x1ca>
 800247c:	4c4a      	ldr	r4, [pc, #296]	; (80025a8 <main+0x2c0>)
 800247e:	0020      	movs	r0, r4
 8002480:	f001 f856 	bl	8003530 <LL_I2C_DeInit>
 8002484:	6863      	ldr	r3, [r4, #4]
 8002486:	4a49      	ldr	r2, [pc, #292]	; (80025ac <main+0x2c4>)
 8002488:	4013      	ands	r3, r2
 800248a:	2201      	movs	r2, #1
 800248c:	6063      	str	r3, [r4, #4]
 800248e:	6823      	ldr	r3, [r4, #0]
 8002490:	4393      	bics	r3, r2
 8002492:	6023      	str	r3, [r4, #0]
 8002494:	6823      	ldr	r3, [r4, #0]
 8002496:	3207      	adds	r2, #7
 8002498:	4393      	bics	r3, r2
 800249a:	6023      	str	r3, [r4, #0]
 800249c:	f7ff f908 	bl	80016b0 <user_i2c_init>
 80024a0:	f7ff f992 	bl	80017c8 <i2c1_it_enable>
 80024a4:	20fa      	movs	r0, #250	; 0xfa
 80024a6:	0040      	lsls	r0, r0, #1
 80024a8:	f000 fa94 	bl	80029d4 <HAL_Delay>
 80024ac:	2300      	movs	r3, #0
 80024ae:	6033      	str	r3, [r6, #0]
 80024b0:	602b      	str	r3, [r5, #0]
 80024b2:	4d52      	ldr	r5, [pc, #328]	; (80025fc <main+0x314>)
 80024b4:	782b      	ldrb	r3, [r5, #0]
 80024b6:	2b00      	cmp	r3, #0
 80024b8:	d016      	beq.n	80024e8 <main+0x200>
 80024ba:	2400      	movs	r4, #0
 80024bc:	4e3e      	ldr	r6, [pc, #248]	; (80025b8 <main+0x2d0>)
 80024be:	2300      	movs	r3, #0
 80024c0:	6033      	str	r3, [r6, #0]
 80024c2:	4b4f      	ldr	r3, [pc, #316]	; (8002600 <main+0x318>)
 80024c4:	5ce3      	ldrb	r3, [r4, r3]
 80024c6:	2b04      	cmp	r3, #4
 80024c8:	d109      	bne.n	80024de <main+0x1f6>
 80024ca:	3b03      	subs	r3, #3
 80024cc:	40a3      	lsls	r3, r4
 80024ce:	4a4d      	ldr	r2, [pc, #308]	; (8002604 <main+0x31c>)
 80024d0:	b29b      	uxth	r3, r3
 80024d2:	8013      	strh	r3, [r2, #0]
 80024d4:	4a4c      	ldr	r2, [pc, #304]	; (8002608 <main+0x320>)
 80024d6:	b2e3      	uxtb	r3, r4
 80024d8:	7013      	strb	r3, [r2, #0]
 80024da:	f000 f9f9 	bl	80028d0 <neopixel_show>
 80024de:	3401      	adds	r4, #1
 80024e0:	2c08      	cmp	r4, #8
 80024e2:	d1ec      	bne.n	80024be <main+0x1d6>
 80024e4:	2300      	movs	r3, #0
 80024e6:	702b      	strb	r3, [r5, #0]
 80024e8:	4d48      	ldr	r5, [pc, #288]	; (800260c <main+0x324>)
 80024ea:	782b      	ldrb	r3, [r5, #0]
 80024ec:	2b00      	cmp	r3, #0
 80024ee:	d100      	bne.n	80024f2 <main+0x20a>
 80024f0:	e729      	b.n	8002346 <main+0x5e>
 80024f2:	b672      	cpsid	i
 80024f4:	f7ff f8dc 	bl	80016b0 <user_i2c_init>
 80024f8:	2415      	movs	r4, #21
 80024fa:	f7ff fab5 	bl	8001a68 <flash_data_write_back>
 80024fe:	2800      	cmp	r0, #0
 8002500:	d041      	beq.n	8002586 <main+0x29e>
 8002502:	b662      	cpsie	i
 8002504:	2300      	movs	r3, #0
 8002506:	702b      	strb	r3, [r5, #0]
 8002508:	e71d      	b.n	8002346 <main+0x5e>
 800250a:	6a45      	ldr	r5, [r0, #36]	; 0x24
 800250c:	42a5      	cmp	r5, r4
 800250e:	d80a      	bhi.n	8002526 <main+0x23e>
 8002510:	781d      	ldrb	r5, [r3, #0]
 8002512:	2d00      	cmp	r5, #0
 8002514:	d107      	bne.n	8002526 <main+0x23e>
 8002516:	7815      	ldrb	r5, [r2, #0]
 8002518:	2d00      	cmp	r5, #0
 800251a:	d104      	bne.n	8002526 <main+0x23e>
 800251c:	888c      	ldrh	r4, [r1, #4]
 800251e:	61bc      	str	r4, [r7, #24]
 8002520:	2401      	movs	r4, #1
 8002522:	701c      	strb	r4, [r3, #0]
 8002524:	e762      	b.n	80023ec <main+0x104>
 8002526:	6a45      	ldr	r5, [r0, #36]	; 0x24
 8002528:	42ac      	cmp	r4, r5
 800252a:	d300      	bcc.n	800252e <main+0x246>
 800252c:	e75e      	b.n	80023ec <main+0x104>
 800252e:	781c      	ldrb	r4, [r3, #0]
 8002530:	2c01      	cmp	r4, #1
 8002532:	d000      	beq.n	8002536 <main+0x24e>
 8002534:	e75a      	b.n	80023ec <main+0x104>
 8002536:	7814      	ldrb	r4, [r2, #0]
 8002538:	9400      	str	r4, [sp, #0]
 800253a:	2c00      	cmp	r4, #0
 800253c:	d000      	beq.n	8002540 <main+0x258>
 800253e:	e755      	b.n	80023ec <main+0x104>
 8002540:	6a44      	ldr	r4, [r0, #36]	; 0x24
 8002542:	4d21      	ldr	r5, [pc, #132]	; (80025c8 <main+0x2e0>)
 8002544:	9401      	str	r4, [sp, #4]
 8002546:	4c1f      	ldr	r4, [pc, #124]	; (80025c4 <main+0x2dc>)
 8002548:	7824      	ldrb	r4, [r4, #0]
 800254a:	0064      	lsls	r4, r4, #1
 800254c:	5b64      	ldrh	r4, [r4, r5]
 800254e:	9d01      	ldr	r5, [sp, #4]
 8002550:	42a5      	cmp	r5, r4
 8002552:	d900      	bls.n	8002556 <main+0x26e>
 8002554:	e74a      	b.n	80023ec <main+0x104>
 8002556:	888c      	ldrh	r4, [r1, #4]
 8002558:	62bc      	str	r4, [r7, #40]	; 0x28
 800255a:	9c00      	ldr	r4, [sp, #0]
 800255c:	e7e1      	b.n	8002522 <main+0x23a>
 800255e:	4c22      	ldr	r4, [pc, #136]	; (80025e8 <main+0x300>)
 8002560:	6a46      	ldr	r6, [r0, #36]	; 0x24
 8002562:	5b65      	ldrh	r5, [r4, r5]
 8002564:	42ae      	cmp	r6, r5
 8002566:	d800      	bhi.n	800256a <main+0x282>
 8002568:	e76e      	b.n	8002448 <main+0x160>
 800256a:	7815      	ldrb	r5, [r2, #0]
 800256c:	2d01      	cmp	r5, #1
 800256e:	d000      	beq.n	8002572 <main+0x28a>
 8002570:	e76a      	b.n	8002448 <main+0x160>
 8002572:	4d1e      	ldr	r5, [pc, #120]	; (80025ec <main+0x304>)
 8002574:	5ced      	ldrb	r5, [r5, r3]
 8002576:	b2ee      	uxtb	r6, r5
 8002578:	2d00      	cmp	r5, #0
 800257a:	d000      	beq.n	800257e <main+0x296>
 800257c:	e764      	b.n	8002448 <main+0x160>
 800257e:	888d      	ldrh	r5, [r1, #4]
 8002580:	62bd      	str	r5, [r7, #40]	; 0x28
 8002582:	7016      	strb	r6, [r2, #0]
 8002584:	e760      	b.n	8002448 <main+0x160>
 8002586:	3c01      	subs	r4, #1
 8002588:	2c00      	cmp	r4, #0
 800258a:	d1b6      	bne.n	80024fa <main+0x212>
 800258c:	f000 fcbc 	bl	8002f08 <HAL_NVIC_SystemReset>
 8002590:	e7b2      	b.n	80024f8 <main+0x210>
 8002592:	46c0      	nop			; (mov r8, r8)
 8002594:	200006cd 	.word	0x200006cd
 8002598:	200006ed 	.word	0x200006ed
 800259c:	20000748 	.word	0x20000748
 80025a0:	20000790 	.word	0x20000790
 80025a4:	200006f4 	.word	0x200006f4
 80025a8:	40005400 	.word	0x40005400
 80025ac:	fdffffff 	.word	0xfdffffff
 80025b0:	e000ed00 	.word	0xe000ed00
 80025b4:	05fa0004 	.word	0x05fa0004
 80025b8:	20000460 	.word	0x20000460
 80025bc:	200006cb 	.word	0x200006cb
 80025c0:	40014400 	.word	0x40014400
 80025c4:	200000cc 	.word	0x200000cc
 80025c8:	200000c2 	.word	0x200000c2
 80025cc:	200000d4 	.word	0x200000d4
 80025d0:	200006c2 	.word	0x200006c2
 80025d4:	2000070a 	.word	0x2000070a
 80025d8:	20000712 	.word	0x20000712
 80025dc:	200006cc 	.word	0x200006cc
 80025e0:	40014800 	.word	0x40014800
 80025e4:	00004e1f 	.word	0x00004e1f
 80025e8:	20000732 	.word	0x20000732
 80025ec:	2000072a 	.word	0x2000072a
 80025f0:	2000045c 	.word	0x2000045c
 80025f4:	20000458 	.word	0x20000458
 80025f8:	200006f0 	.word	0x200006f0
 80025fc:	20000706 	.word	0x20000706
 8002600:	200006fe 	.word	0x200006fe
 8002604:	20000708 	.word	0x20000708
 8002608:	200006ca 	.word	0x200006ca
 800260c:	200006ee 	.word	0x200006ee

08002610 <HAL_MspInit>:
 8002610:	2001      	movs	r0, #1
 8002612:	4b0a      	ldr	r3, [pc, #40]	; (800263c <HAL_MspInit+0x2c>)
 8002614:	b082      	sub	sp, #8
 8002616:	6999      	ldr	r1, [r3, #24]
 8002618:	4301      	orrs	r1, r0
 800261a:	6199      	str	r1, [r3, #24]
 800261c:	2180      	movs	r1, #128	; 0x80
 800261e:	699a      	ldr	r2, [r3, #24]
 8002620:	0549      	lsls	r1, r1, #21
 8002622:	4002      	ands	r2, r0
 8002624:	9200      	str	r2, [sp, #0]
 8002626:	9a00      	ldr	r2, [sp, #0]
 8002628:	69da      	ldr	r2, [r3, #28]
 800262a:	430a      	orrs	r2, r1
 800262c:	61da      	str	r2, [r3, #28]
 800262e:	69db      	ldr	r3, [r3, #28]
 8002630:	400b      	ands	r3, r1
 8002632:	9301      	str	r3, [sp, #4]
 8002634:	9b01      	ldr	r3, [sp, #4]
 8002636:	b002      	add	sp, #8
 8002638:	4770      	bx	lr
 800263a:	46c0      	nop			; (mov r8, r8)
 800263c:	40021000 	.word	0x40021000

08002640 <NMI_Handler>:
 8002640:	b510      	push	{r4, lr}
 8002642:	f000 fc61 	bl	8002f08 <HAL_NVIC_SystemReset>
 8002646:	e7fc      	b.n	8002642 <NMI_Handler+0x2>

08002648 <HardFault_Handler>:
 8002648:	b510      	push	{r4, lr}
 800264a:	f000 fc5d 	bl	8002f08 <HAL_NVIC_SystemReset>
 800264e:	e7fc      	b.n	800264a <HardFault_Handler+0x2>

08002650 <SVC_Handler>:
 8002650:	4770      	bx	lr

08002652 <PendSV_Handler>:
 8002652:	4770      	bx	lr

08002654 <SysTick_Handler>:
 8002654:	b510      	push	{r4, lr}
 8002656:	f000 f9ab 	bl	80029b0 <HAL_IncTick>
 800265a:	bd10      	pop	{r4, pc}

0800265c <_sbrk>:
 800265c:	4a0b      	ldr	r2, [pc, #44]	; (800268c <_sbrk+0x30>)
 800265e:	490c      	ldr	r1, [pc, #48]	; (8002690 <_sbrk+0x34>)
 8002660:	0003      	movs	r3, r0
 8002662:	1a89      	subs	r1, r1, r2
 8002664:	4a0b      	ldr	r2, [pc, #44]	; (8002694 <_sbrk+0x38>)
 8002666:	b510      	push	{r4, lr}
 8002668:	6810      	ldr	r0, [r2, #0]
 800266a:	2800      	cmp	r0, #0
 800266c:	d101      	bne.n	8002672 <_sbrk+0x16>
 800266e:	480a      	ldr	r0, [pc, #40]	; (8002698 <_sbrk+0x3c>)
 8002670:	6010      	str	r0, [r2, #0]
 8002672:	6810      	ldr	r0, [r2, #0]
 8002674:	18c3      	adds	r3, r0, r3
 8002676:	428b      	cmp	r3, r1
 8002678:	d906      	bls.n	8002688 <_sbrk+0x2c>
 800267a:	f000 ffbb 	bl	80035f4 <__errno>
 800267e:	230c      	movs	r3, #12
 8002680:	6003      	str	r3, [r0, #0]
 8002682:	2001      	movs	r0, #1
 8002684:	4240      	negs	r0, r0
 8002686:	bd10      	pop	{r4, pc}
 8002688:	6013      	str	r3, [r2, #0]
 800268a:	e7fc      	b.n	8002686 <_sbrk+0x2a>
 800268c:	00000400 	.word	0x00000400
 8002690:	20001000 	.word	0x20001000
 8002694:	20000744 	.word	0x20000744
 8002698:	20000818 	.word	0x20000818

0800269c <SystemInit>:
 800269c:	4770      	bx	lr
	...

080026a0 <MX_TIM16_Init>:
 80026a0:	4809      	ldr	r0, [pc, #36]	; (80026c8 <MX_TIM16_Init+0x28>)
 80026a2:	4b0a      	ldr	r3, [pc, #40]	; (80026cc <MX_TIM16_Init+0x2c>)
 80026a4:	b510      	push	{r4, lr}
 80026a6:	6003      	str	r3, [r0, #0]
 80026a8:	232f      	movs	r3, #47	; 0x2f
 80026aa:	6043      	str	r3, [r0, #4]
 80026ac:	2300      	movs	r3, #0
 80026ae:	4a08      	ldr	r2, [pc, #32]	; (80026d0 <MX_TIM16_Init+0x30>)
 80026b0:	6083      	str	r3, [r0, #8]
 80026b2:	60c2      	str	r2, [r0, #12]
 80026b4:	6103      	str	r3, [r0, #16]
 80026b6:	6143      	str	r3, [r0, #20]
 80026b8:	6183      	str	r3, [r0, #24]
 80026ba:	f000 febf 	bl	800343c <HAL_TIM_Base_Init>
 80026be:	2800      	cmp	r0, #0
 80026c0:	d001      	beq.n	80026c6 <MX_TIM16_Init+0x26>
 80026c2:	f7ff fd6f 	bl	80021a4 <Error_Handler>
 80026c6:	bd10      	pop	{r4, pc}
 80026c8:	20000748 	.word	0x20000748
 80026cc:	40014400 	.word	0x40014400
 80026d0:	0000ffff 	.word	0x0000ffff

080026d4 <MX_TIM17_Init>:
 80026d4:	4809      	ldr	r0, [pc, #36]	; (80026fc <MX_TIM17_Init+0x28>)
 80026d6:	4b0a      	ldr	r3, [pc, #40]	; (8002700 <MX_TIM17_Init+0x2c>)
 80026d8:	b510      	push	{r4, lr}
 80026da:	6003      	str	r3, [r0, #0]
 80026dc:	232f      	movs	r3, #47	; 0x2f
 80026de:	6043      	str	r3, [r0, #4]
 80026e0:	2300      	movs	r3, #0
 80026e2:	4a08      	ldr	r2, [pc, #32]	; (8002704 <MX_TIM17_Init+0x30>)
 80026e4:	6083      	str	r3, [r0, #8]
 80026e6:	60c2      	str	r2, [r0, #12]
 80026e8:	6103      	str	r3, [r0, #16]
 80026ea:	6143      	str	r3, [r0, #20]
 80026ec:	6183      	str	r3, [r0, #24]
 80026ee:	f000 fea5 	bl	800343c <HAL_TIM_Base_Init>
 80026f2:	2800      	cmp	r0, #0
 80026f4:	d001      	beq.n	80026fa <MX_TIM17_Init+0x26>
 80026f6:	f7ff fd55 	bl	80021a4 <Error_Handler>
 80026fa:	bd10      	pop	{r4, pc}
 80026fc:	20000790 	.word	0x20000790
 8002700:	40014800 	.word	0x40014800
 8002704:	0000ffff 	.word	0x0000ffff

08002708 <HAL_TIM_Base_MspInit>:
 8002708:	6803      	ldr	r3, [r0, #0]
 800270a:	4a0f      	ldr	r2, [pc, #60]	; (8002748 <HAL_TIM_Base_MspInit+0x40>)
 800270c:	b082      	sub	sp, #8
 800270e:	4293      	cmp	r3, r2
 8002710:	d10b      	bne.n	800272a <HAL_TIM_Base_MspInit+0x22>
 8002712:	2080      	movs	r0, #128	; 0x80
 8002714:	4a0d      	ldr	r2, [pc, #52]	; (800274c <HAL_TIM_Base_MspInit+0x44>)
 8002716:	0280      	lsls	r0, r0, #10
 8002718:	6991      	ldr	r1, [r2, #24]
 800271a:	4301      	orrs	r1, r0
 800271c:	6191      	str	r1, [r2, #24]
 800271e:	6993      	ldr	r3, [r2, #24]
 8002720:	4003      	ands	r3, r0
 8002722:	9300      	str	r3, [sp, #0]
 8002724:	9b00      	ldr	r3, [sp, #0]
 8002726:	b002      	add	sp, #8
 8002728:	4770      	bx	lr
 800272a:	4a09      	ldr	r2, [pc, #36]	; (8002750 <HAL_TIM_Base_MspInit+0x48>)
 800272c:	4293      	cmp	r3, r2
 800272e:	d1fa      	bne.n	8002726 <HAL_TIM_Base_MspInit+0x1e>
 8002730:	2080      	movs	r0, #128	; 0x80
 8002732:	4a06      	ldr	r2, [pc, #24]	; (800274c <HAL_TIM_Base_MspInit+0x44>)
 8002734:	02c0      	lsls	r0, r0, #11
 8002736:	6991      	ldr	r1, [r2, #24]
 8002738:	4301      	orrs	r1, r0
 800273a:	6191      	str	r1, [r2, #24]
 800273c:	6993      	ldr	r3, [r2, #24]
 800273e:	4003      	ands	r3, r0
 8002740:	9301      	str	r3, [sp, #4]
 8002742:	9b01      	ldr	r3, [sp, #4]
 8002744:	e7ef      	b.n	8002726 <HAL_TIM_Base_MspInit+0x1e>
 8002746:	46c0      	nop			; (mov r8, r8)
 8002748:	40014400 	.word	0x40014400
 800274c:	40021000 	.word	0x40021000
 8002750:	40014800 	.word	0x40014800

08002754 <HAL_TIM_Base_MspDeInit>:
 8002754:	6803      	ldr	r3, [r0, #0]
 8002756:	4a08      	ldr	r2, [pc, #32]	; (8002778 <HAL_TIM_Base_MspDeInit+0x24>)
 8002758:	4293      	cmp	r3, r2
 800275a:	d105      	bne.n	8002768 <HAL_TIM_Base_MspDeInit+0x14>
 800275c:	4a07      	ldr	r2, [pc, #28]	; (800277c <HAL_TIM_Base_MspDeInit+0x28>)
 800275e:	4908      	ldr	r1, [pc, #32]	; (8002780 <HAL_TIM_Base_MspDeInit+0x2c>)
 8002760:	6993      	ldr	r3, [r2, #24]
 8002762:	400b      	ands	r3, r1
 8002764:	6193      	str	r3, [r2, #24]
 8002766:	4770      	bx	lr
 8002768:	4a06      	ldr	r2, [pc, #24]	; (8002784 <HAL_TIM_Base_MspDeInit+0x30>)
 800276a:	4293      	cmp	r3, r2
 800276c:	d1fb      	bne.n	8002766 <HAL_TIM_Base_MspDeInit+0x12>
 800276e:	4a03      	ldr	r2, [pc, #12]	; (800277c <HAL_TIM_Base_MspDeInit+0x28>)
 8002770:	4905      	ldr	r1, [pc, #20]	; (8002788 <HAL_TIM_Base_MspDeInit+0x34>)
 8002772:	6993      	ldr	r3, [r2, #24]
 8002774:	e7f5      	b.n	8002762 <HAL_TIM_Base_MspDeInit+0xe>
 8002776:	46c0      	nop			; (mov r8, r8)
 8002778:	40014400 	.word	0x40014400
 800277c:	40021000 	.word	0x40021000
 8002780:	fffdffff 	.word	0xfffdffff
 8002784:	40014800 	.word	0x40014800
 8002788:	fffbffff 	.word	0xfffbffff

0800278c <restart>:
 800278c:	2371      	movs	r3, #113	; 0x71
 800278e:	46c0      	nop			; (mov r8, r8)
 8002790:	46c0      	nop			; (mov r8, r8)
 8002792:	46c0      	nop			; (mov r8, r8)
 8002794:	46c0      	nop			; (mov r8, r8)
 8002796:	46c0      	nop			; (mov r8, r8)
 8002798:	46c0      	nop			; (mov r8, r8)
 800279a:	46c0      	nop			; (mov r8, r8)
 800279c:	46c0      	nop			; (mov r8, r8)
 800279e:	46c0      	nop			; (mov r8, r8)
 80027a0:	46c0      	nop			; (mov r8, r8)
 80027a2:	46c0      	nop			; (mov r8, r8)
 80027a4:	46c0      	nop			; (mov r8, r8)
 80027a6:	46c0      	nop			; (mov r8, r8)
 80027a8:	46c0      	nop			; (mov r8, r8)
 80027aa:	46c0      	nop			; (mov r8, r8)
 80027ac:	46c0      	nop			; (mov r8, r8)
 80027ae:	46c0      	nop			; (mov r8, r8)
 80027b0:	46c0      	nop			; (mov r8, r8)
 80027b2:	46c0      	nop			; (mov r8, r8)
 80027b4:	46c0      	nop			; (mov r8, r8)
 80027b6:	46c0      	nop			; (mov r8, r8)
 80027b8:	46c0      	nop			; (mov r8, r8)
 80027ba:	46c0      	nop			; (mov r8, r8)
 80027bc:	46c0      	nop			; (mov r8, r8)
 80027be:	3b01      	subs	r3, #1
 80027c0:	b2db      	uxtb	r3, r3
 80027c2:	2b00      	cmp	r3, #0
 80027c4:	d1e3      	bne.n	800278e <restart+0x2>
 80027c6:	4770      	bx	lr

080027c8 <sk6812_init>:
 80027c8:	b510      	push	{r4, lr}
 80027ca:	2104      	movs	r1, #4
 80027cc:	0004      	movs	r4, r0
 80027ce:	f000 ff07 	bl	80035e0 <calloc>
 80027d2:	4b02      	ldr	r3, [pc, #8]	; (80027dc <sk6812_init+0x14>)
 80027d4:	6018      	str	r0, [r3, #0]
 80027d6:	4b02      	ldr	r3, [pc, #8]	; (80027e0 <sk6812_init+0x18>)
 80027d8:	701c      	strb	r4, [r3, #0]
 80027da:	bd10      	pop	{r4, pc}
 80027dc:	200007d8 	.word	0x200007d8
 80027e0:	200007dc 	.word	0x200007dc

080027e4 <neopixel_set_color>:
 80027e4:	000a      	movs	r2, r1
 80027e6:	4b07      	ldr	r3, [pc, #28]	; (8002804 <neopixel_set_color+0x20>)
 80027e8:	b510      	push	{r4, lr}
 80027ea:	0e09      	lsrs	r1, r1, #24
 80027ec:	681c      	ldr	r4, [r3, #0]
 80027ee:	0a13      	lsrs	r3, r2, #8
 80027f0:	b2db      	uxtb	r3, r3
 80027f2:	0209      	lsls	r1, r1, #8
 80027f4:	4319      	orrs	r1, r3
 80027f6:	23ff      	movs	r3, #255	; 0xff
 80027f8:	041b      	lsls	r3, r3, #16
 80027fa:	401a      	ands	r2, r3
 80027fc:	0080      	lsls	r0, r0, #2
 80027fe:	4311      	orrs	r1, r2
 8002800:	5101      	str	r1, [r0, r4]
 8002802:	bd10      	pop	{r4, pc}
 8002804:	200007d8 	.word	0x200007d8

08002808 <color_set_single>:
 8002808:	2190      	movs	r1, #144	; 0x90
 800280a:	b530      	push	{r4, r5, lr}
 800280c:	2317      	movs	r3, #23
 800280e:	2501      	movs	r5, #1
 8002810:	4a2e      	ldr	r2, [pc, #184]	; (80028cc <color_set_single+0xc4>)
 8002812:	05c9      	lsls	r1, r1, #23
 8002814:	002c      	movs	r4, r5
 8002816:	409c      	lsls	r4, r3
 8002818:	4220      	tst	r0, r4
 800281a:	d032      	beq.n	8002882 <color_set_single+0x7a>
 800281c:	8814      	ldrh	r4, [r2, #0]
 800281e:	b2a4      	uxth	r4, r4
 8002820:	618c      	str	r4, [r1, #24]
 8002822:	46c0      	nop			; (mov r8, r8)
 8002824:	46c0      	nop			; (mov r8, r8)
 8002826:	46c0      	nop			; (mov r8, r8)
 8002828:	46c0      	nop			; (mov r8, r8)
 800282a:	46c0      	nop			; (mov r8, r8)
 800282c:	46c0      	nop			; (mov r8, r8)
 800282e:	46c0      	nop			; (mov r8, r8)
 8002830:	46c0      	nop			; (mov r8, r8)
 8002832:	46c0      	nop			; (mov r8, r8)
 8002834:	46c0      	nop			; (mov r8, r8)
 8002836:	46c0      	nop			; (mov r8, r8)
 8002838:	46c0      	nop			; (mov r8, r8)
 800283a:	46c0      	nop			; (mov r8, r8)
 800283c:	46c0      	nop			; (mov r8, r8)
 800283e:	46c0      	nop			; (mov r8, r8)
 8002840:	46c0      	nop			; (mov r8, r8)
 8002842:	46c0      	nop			; (mov r8, r8)
 8002844:	46c0      	nop			; (mov r8, r8)
 8002846:	46c0      	nop			; (mov r8, r8)
 8002848:	46c0      	nop			; (mov r8, r8)
 800284a:	46c0      	nop			; (mov r8, r8)
 800284c:	46c0      	nop			; (mov r8, r8)
 800284e:	46c0      	nop			; (mov r8, r8)
 8002850:	46c0      	nop			; (mov r8, r8)
 8002852:	46c0      	nop			; (mov r8, r8)
 8002854:	46c0      	nop			; (mov r8, r8)
 8002856:	46c0      	nop			; (mov r8, r8)
 8002858:	46c0      	nop			; (mov r8, r8)
 800285a:	46c0      	nop			; (mov r8, r8)
 800285c:	46c0      	nop			; (mov r8, r8)
 800285e:	46c0      	nop			; (mov r8, r8)
 8002860:	46c0      	nop			; (mov r8, r8)
 8002862:	46c0      	nop			; (mov r8, r8)
 8002864:	46c0      	nop			; (mov r8, r8)
 8002866:	46c0      	nop			; (mov r8, r8)
 8002868:	46c0      	nop			; (mov r8, r8)
 800286a:	8814      	ldrh	r4, [r2, #0]
 800286c:	b2a4      	uxth	r4, r4
 800286e:	628c      	str	r4, [r1, #40]	; 0x28
 8002870:	46c0      	nop			; (mov r8, r8)
 8002872:	46c0      	nop			; (mov r8, r8)
 8002874:	46c0      	nop			; (mov r8, r8)
 8002876:	46c0      	nop			; (mov r8, r8)
 8002878:	46c0      	nop			; (mov r8, r8)
 800287a:	46c0      	nop			; (mov r8, r8)
 800287c:	3b01      	subs	r3, #1
 800287e:	d2c9      	bcs.n	8002814 <color_set_single+0xc>
 8002880:	bd30      	pop	{r4, r5, pc}
 8002882:	8814      	ldrh	r4, [r2, #0]
 8002884:	b2a4      	uxth	r4, r4
 8002886:	618c      	str	r4, [r1, #24]
 8002888:	46c0      	nop			; (mov r8, r8)
 800288a:	46c0      	nop			; (mov r8, r8)
 800288c:	46c0      	nop			; (mov r8, r8)
 800288e:	46c0      	nop			; (mov r8, r8)
 8002890:	46c0      	nop			; (mov r8, r8)
 8002892:	46c0      	nop			; (mov r8, r8)
 8002894:	46c0      	nop			; (mov r8, r8)
 8002896:	46c0      	nop			; (mov r8, r8)
 8002898:	46c0      	nop			; (mov r8, r8)
 800289a:	46c0      	nop			; (mov r8, r8)
 800289c:	46c0      	nop			; (mov r8, r8)
 800289e:	46c0      	nop			; (mov r8, r8)
 80028a0:	8814      	ldrh	r4, [r2, #0]
 80028a2:	b2a4      	uxth	r4, r4
 80028a4:	628c      	str	r4, [r1, #40]	; 0x28
 80028a6:	46c0      	nop			; (mov r8, r8)
 80028a8:	46c0      	nop			; (mov r8, r8)
 80028aa:	46c0      	nop			; (mov r8, r8)
 80028ac:	46c0      	nop			; (mov r8, r8)
 80028ae:	46c0      	nop			; (mov r8, r8)
 80028b0:	46c0      	nop			; (mov r8, r8)
 80028b2:	46c0      	nop			; (mov r8, r8)
 80028b4:	46c0      	nop			; (mov r8, r8)
 80028b6:	46c0      	nop			; (mov r8, r8)
 80028b8:	46c0      	nop			; (mov r8, r8)
 80028ba:	46c0      	nop			; (mov r8, r8)
 80028bc:	46c0      	nop			; (mov r8, r8)
 80028be:	46c0      	nop			; (mov r8, r8)
 80028c0:	46c0      	nop			; (mov r8, r8)
 80028c2:	46c0      	nop			; (mov r8, r8)
 80028c4:	46c0      	nop			; (mov r8, r8)
 80028c6:	46c0      	nop			; (mov r8, r8)
 80028c8:	46c0      	nop			; (mov r8, r8)
 80028ca:	e7d1      	b.n	8002870 <color_set_single+0x68>
 80028cc:	20000708 	.word	0x20000708

080028d0 <neopixel_show>:
 80028d0:	b510      	push	{r4, lr}
 80028d2:	b672      	cpsid	i
 80028d4:	4b05      	ldr	r3, [pc, #20]	; (80028ec <neopixel_show+0x1c>)
 80028d6:	4a06      	ldr	r2, [pc, #24]	; (80028f0 <neopixel_show+0x20>)
 80028d8:	781b      	ldrb	r3, [r3, #0]
 80028da:	6812      	ldr	r2, [r2, #0]
 80028dc:	009b      	lsls	r3, r3, #2
 80028de:	5898      	ldr	r0, [r3, r2]
 80028e0:	f7ff ff92 	bl	8002808 <color_set_single>
 80028e4:	b662      	cpsie	i
 80028e6:	f7ff ff51 	bl	800278c <restart>
 80028ea:	bd10      	pop	{r4, pc}
 80028ec:	200006ca 	.word	0x200006ca
 80028f0:	200007d8 	.word	0x200007d8

080028f4 <Reset_Handler>:
 80028f4:	480d      	ldr	r0, [pc, #52]	; (800292c <LoopForever+0x2>)
 80028f6:	4685      	mov	sp, r0
 80028f8:	f7ff fed0 	bl	800269c <SystemInit>
 80028fc:	480c      	ldr	r0, [pc, #48]	; (8002930 <LoopForever+0x6>)
 80028fe:	490d      	ldr	r1, [pc, #52]	; (8002934 <LoopForever+0xa>)
 8002900:	4a0d      	ldr	r2, [pc, #52]	; (8002938 <LoopForever+0xe>)
 8002902:	2300      	movs	r3, #0
 8002904:	e002      	b.n	800290c <LoopCopyDataInit>

08002906 <CopyDataInit>:
 8002906:	58d4      	ldr	r4, [r2, r3]
 8002908:	50c4      	str	r4, [r0, r3]
 800290a:	3304      	adds	r3, #4

0800290c <LoopCopyDataInit>:
 800290c:	18c4      	adds	r4, r0, r3
 800290e:	428c      	cmp	r4, r1
 8002910:	d3f9      	bcc.n	8002906 <CopyDataInit>
 8002912:	4a0a      	ldr	r2, [pc, #40]	; (800293c <LoopForever+0x12>)
 8002914:	4c0a      	ldr	r4, [pc, #40]	; (8002940 <LoopForever+0x16>)
 8002916:	2300      	movs	r3, #0
 8002918:	e001      	b.n	800291e <LoopFillZerobss>

0800291a <FillZerobss>:
 800291a:	6013      	str	r3, [r2, #0]
 800291c:	3204      	adds	r2, #4

0800291e <LoopFillZerobss>:
 800291e:	42a2      	cmp	r2, r4
 8002920:	d3fb      	bcc.n	800291a <FillZerobss>
 8002922:	f000 fe6d 	bl	8003600 <__libc_init_array>
 8002926:	f7ff fcdf 	bl	80022e8 <main>

0800292a <LoopForever>:
 800292a:	e7fe      	b.n	800292a <LoopForever>
 800292c:	20001000 	.word	0x20001000
 8002930:	200000c0 	.word	0x200000c0
 8002934:	20000184 	.word	0x20000184
 8002938:	0800385c 	.word	0x0800385c
 800293c:	20000188 	.word	0x20000188
 8002940:	20000818 	.word	0x20000818

08002944 <ADC1_IRQHandler>:
 8002944:	e7fe      	b.n	8002944 <ADC1_IRQHandler>
	...

08002948 <HAL_InitTick>:
 8002948:	b570      	push	{r4, r5, r6, lr}
 800294a:	0005      	movs	r5, r0
 800294c:	20fa      	movs	r0, #250	; 0xfa
 800294e:	4b0d      	ldr	r3, [pc, #52]	; (8002984 <HAL_InitTick+0x3c>)
 8002950:	0080      	lsls	r0, r0, #2
 8002952:	7819      	ldrb	r1, [r3, #0]
 8002954:	f7fe fbe2 	bl	800111c <__udivsi3>
 8002958:	4b0b      	ldr	r3, [pc, #44]	; (8002988 <HAL_InitTick+0x40>)
 800295a:	0001      	movs	r1, r0
 800295c:	6818      	ldr	r0, [r3, #0]
 800295e:	f7fe fbdd 	bl	800111c <__udivsi3>
 8002962:	f000 fadf 	bl	8002f24 <HAL_SYSTICK_Config>
 8002966:	0004      	movs	r4, r0
 8002968:	2001      	movs	r0, #1
 800296a:	2c00      	cmp	r4, #0
 800296c:	d109      	bne.n	8002982 <HAL_InitTick+0x3a>
 800296e:	2d03      	cmp	r5, #3
 8002970:	d807      	bhi.n	8002982 <HAL_InitTick+0x3a>
 8002972:	3802      	subs	r0, #2
 8002974:	0022      	movs	r2, r4
 8002976:	0029      	movs	r1, r5
 8002978:	f000 fa9c 	bl	8002eb4 <HAL_NVIC_SetPriority>
 800297c:	0020      	movs	r0, r4
 800297e:	4b03      	ldr	r3, [pc, #12]	; (800298c <HAL_InitTick+0x44>)
 8002980:	601d      	str	r5, [r3, #0]
 8002982:	bd70      	pop	{r4, r5, r6, pc}
 8002984:	20000118 	.word	0x20000118
 8002988:	20000114 	.word	0x20000114
 800298c:	2000011c 	.word	0x2000011c

08002990 <HAL_Init>:
 8002990:	2310      	movs	r3, #16
 8002992:	4a06      	ldr	r2, [pc, #24]	; (80029ac <HAL_Init+0x1c>)
 8002994:	b510      	push	{r4, lr}
 8002996:	6811      	ldr	r1, [r2, #0]
 8002998:	2003      	movs	r0, #3
 800299a:	430b      	orrs	r3, r1
 800299c:	6013      	str	r3, [r2, #0]
 800299e:	f7ff ffd3 	bl	8002948 <HAL_InitTick>
 80029a2:	f7ff fe35 	bl	8002610 <HAL_MspInit>
 80029a6:	2000      	movs	r0, #0
 80029a8:	bd10      	pop	{r4, pc}
 80029aa:	46c0      	nop			; (mov r8, r8)
 80029ac:	40022000 	.word	0x40022000

080029b0 <HAL_IncTick>:
 80029b0:	4a03      	ldr	r2, [pc, #12]	; (80029c0 <HAL_IncTick+0x10>)
 80029b2:	4b04      	ldr	r3, [pc, #16]	; (80029c4 <HAL_IncTick+0x14>)
 80029b4:	6811      	ldr	r1, [r2, #0]
 80029b6:	781b      	ldrb	r3, [r3, #0]
 80029b8:	185b      	adds	r3, r3, r1
 80029ba:	6013      	str	r3, [r2, #0]
 80029bc:	4770      	bx	lr
 80029be:	46c0      	nop			; (mov r8, r8)
 80029c0:	200007e0 	.word	0x200007e0
 80029c4:	20000118 	.word	0x20000118

080029c8 <HAL_GetTick>:
 80029c8:	4b01      	ldr	r3, [pc, #4]	; (80029d0 <HAL_GetTick+0x8>)
 80029ca:	6818      	ldr	r0, [r3, #0]
 80029cc:	4770      	bx	lr
 80029ce:	46c0      	nop			; (mov r8, r8)
 80029d0:	200007e0 	.word	0x200007e0

080029d4 <HAL_Delay>:
 80029d4:	b570      	push	{r4, r5, r6, lr}
 80029d6:	0004      	movs	r4, r0
 80029d8:	f7ff fff6 	bl	80029c8 <HAL_GetTick>
 80029dc:	0005      	movs	r5, r0
 80029de:	1c63      	adds	r3, r4, #1
 80029e0:	d002      	beq.n	80029e8 <HAL_Delay+0x14>
 80029e2:	4b04      	ldr	r3, [pc, #16]	; (80029f4 <HAL_Delay+0x20>)
 80029e4:	781b      	ldrb	r3, [r3, #0]
 80029e6:	18e4      	adds	r4, r4, r3
 80029e8:	f7ff ffee 	bl	80029c8 <HAL_GetTick>
 80029ec:	1b40      	subs	r0, r0, r5
 80029ee:	42a0      	cmp	r0, r4
 80029f0:	d3fa      	bcc.n	80029e8 <HAL_Delay+0x14>
 80029f2:	bd70      	pop	{r4, r5, r6, pc}
 80029f4:	20000118 	.word	0x20000118

080029f8 <ADC_Enable>:
 80029f8:	2300      	movs	r3, #0
 80029fa:	b573      	push	{r0, r1, r4, r5, r6, lr}
 80029fc:	2103      	movs	r1, #3
 80029fe:	9301      	str	r3, [sp, #4]
 8002a00:	6803      	ldr	r3, [r0, #0]
 8002a02:	0004      	movs	r4, r0
 8002a04:	689a      	ldr	r2, [r3, #8]
 8002a06:	400a      	ands	r2, r1
 8002a08:	2a01      	cmp	r2, #1
 8002a0a:	d107      	bne.n	8002a1c <ADC_Enable+0x24>
 8002a0c:	6819      	ldr	r1, [r3, #0]
 8002a0e:	4211      	tst	r1, r2
 8002a10:	d001      	beq.n	8002a16 <ADC_Enable+0x1e>
 8002a12:	2000      	movs	r0, #0
 8002a14:	bd76      	pop	{r1, r2, r4, r5, r6, pc}
 8002a16:	68da      	ldr	r2, [r3, #12]
 8002a18:	0412      	lsls	r2, r2, #16
 8002a1a:	d4fa      	bmi.n	8002a12 <ADC_Enable+0x1a>
 8002a1c:	6899      	ldr	r1, [r3, #8]
 8002a1e:	4a1b      	ldr	r2, [pc, #108]	; (8002a8c <ADC_Enable+0x94>)
 8002a20:	4211      	tst	r1, r2
 8002a22:	d008      	beq.n	8002a36 <ADC_Enable+0x3e>
 8002a24:	2310      	movs	r3, #16
 8002a26:	2001      	movs	r0, #1
 8002a28:	6ba2      	ldr	r2, [r4, #56]	; 0x38
 8002a2a:	4313      	orrs	r3, r2
 8002a2c:	63a3      	str	r3, [r4, #56]	; 0x38
 8002a2e:	6be3      	ldr	r3, [r4, #60]	; 0x3c
 8002a30:	4303      	orrs	r3, r0
 8002a32:	63e3      	str	r3, [r4, #60]	; 0x3c
 8002a34:	e7ee      	b.n	8002a14 <ADC_Enable+0x1c>
 8002a36:	2201      	movs	r2, #1
 8002a38:	6899      	ldr	r1, [r3, #8]
 8002a3a:	430a      	orrs	r2, r1
 8002a3c:	609a      	str	r2, [r3, #8]
 8002a3e:	4b14      	ldr	r3, [pc, #80]	; (8002a90 <ADC_Enable+0x98>)
 8002a40:	4914      	ldr	r1, [pc, #80]	; (8002a94 <ADC_Enable+0x9c>)
 8002a42:	6818      	ldr	r0, [r3, #0]
 8002a44:	f7fe fb6a 	bl	800111c <__udivsi3>
 8002a48:	9001      	str	r0, [sp, #4]
 8002a4a:	9b01      	ldr	r3, [sp, #4]
 8002a4c:	2b00      	cmp	r3, #0
 8002a4e:	d119      	bne.n	8002a84 <ADC_Enable+0x8c>
 8002a50:	f7ff ffba 	bl	80029c8 <HAL_GetTick>
 8002a54:	2501      	movs	r5, #1
 8002a56:	0006      	movs	r6, r0
 8002a58:	6823      	ldr	r3, [r4, #0]
 8002a5a:	681b      	ldr	r3, [r3, #0]
 8002a5c:	422b      	tst	r3, r5
 8002a5e:	d1d8      	bne.n	8002a12 <ADC_Enable+0x1a>
 8002a60:	f7ff ffb2 	bl	80029c8 <HAL_GetTick>
 8002a64:	1b80      	subs	r0, r0, r6
 8002a66:	2802      	cmp	r0, #2
 8002a68:	d9f6      	bls.n	8002a58 <ADC_Enable+0x60>
 8002a6a:	6823      	ldr	r3, [r4, #0]
 8002a6c:	681b      	ldr	r3, [r3, #0]
 8002a6e:	422b      	tst	r3, r5
 8002a70:	d1f2      	bne.n	8002a58 <ADC_Enable+0x60>
 8002a72:	2310      	movs	r3, #16
 8002a74:	6ba2      	ldr	r2, [r4, #56]	; 0x38
 8002a76:	2001      	movs	r0, #1
 8002a78:	4313      	orrs	r3, r2
 8002a7a:	63a3      	str	r3, [r4, #56]	; 0x38
 8002a7c:	6be3      	ldr	r3, [r4, #60]	; 0x3c
 8002a7e:	431d      	orrs	r5, r3
 8002a80:	63e5      	str	r5, [r4, #60]	; 0x3c
 8002a82:	e7c7      	b.n	8002a14 <ADC_Enable+0x1c>
 8002a84:	9b01      	ldr	r3, [sp, #4]
 8002a86:	3b01      	subs	r3, #1
 8002a88:	9301      	str	r3, [sp, #4]
 8002a8a:	e7de      	b.n	8002a4a <ADC_Enable+0x52>
 8002a8c:	80000017 	.word	0x80000017
 8002a90:	20000114 	.word	0x20000114
 8002a94:	000f4240 	.word	0x000f4240

08002a98 <HAL_ADC_Init>:
 8002a98:	b5f8      	push	{r3, r4, r5, r6, r7, lr}
 8002a9a:	0004      	movs	r4, r0
 8002a9c:	2001      	movs	r0, #1
 8002a9e:	2c00      	cmp	r4, #0
 8002aa0:	d100      	bne.n	8002aa4 <HAL_ADC_Init+0xc>
 8002aa2:	e080      	b.n	8002ba6 <HAL_ADC_Init+0x10e>
 8002aa4:	6ba3      	ldr	r3, [r4, #56]	; 0x38
 8002aa6:	2b00      	cmp	r3, #0
 8002aa8:	d106      	bne.n	8002ab8 <HAL_ADC_Init+0x20>
 8002aaa:	0022      	movs	r2, r4
 8002aac:	3234      	adds	r2, #52	; 0x34
 8002aae:	63e3      	str	r3, [r4, #60]	; 0x3c
 8002ab0:	0020      	movs	r0, r4
 8002ab2:	7013      	strb	r3, [r2, #0]
 8002ab4:	f7fe fd0a 	bl	80014cc <HAL_ADC_MspInit>
 8002ab8:	6ba3      	ldr	r3, [r4, #56]	; 0x38
 8002aba:	06db      	lsls	r3, r3, #27
 8002abc:	d500      	bpl.n	8002ac0 <HAL_ADC_Init+0x28>
 8002abe:	e087      	b.n	8002bd0 <HAL_ADC_Init+0x138>
 8002ac0:	6823      	ldr	r3, [r4, #0]
 8002ac2:	2204      	movs	r2, #4
 8002ac4:	6899      	ldr	r1, [r3, #8]
 8002ac6:	0008      	movs	r0, r1
 8002ac8:	4010      	ands	r0, r2
 8002aca:	4211      	tst	r1, r2
 8002acc:	d000      	beq.n	8002ad0 <HAL_ADC_Init+0x38>
 8002ace:	e07f      	b.n	8002bd0 <HAL_ADC_Init+0x138>
 8002ad0:	6ba2      	ldr	r2, [r4, #56]	; 0x38
 8002ad2:	4942      	ldr	r1, [pc, #264]	; (8002bdc <HAL_ADC_Init+0x144>)
 8002ad4:	4011      	ands	r1, r2
 8002ad6:	2202      	movs	r2, #2
 8002ad8:	430a      	orrs	r2, r1
 8002ada:	2103      	movs	r1, #3
 8002adc:	63a2      	str	r2, [r4, #56]	; 0x38
 8002ade:	689a      	ldr	r2, [r3, #8]
 8002ae0:	400a      	ands	r2, r1
 8002ae2:	2a01      	cmp	r2, #1
 8002ae4:	d105      	bne.n	8002af2 <HAL_ADC_Init+0x5a>
 8002ae6:	6819      	ldr	r1, [r3, #0]
 8002ae8:	4211      	tst	r1, r2
 8002aea:	d10e      	bne.n	8002b0a <HAL_ADC_Init+0x72>
 8002aec:	68da      	ldr	r2, [r3, #12]
 8002aee:	0412      	lsls	r2, r2, #16
 8002af0:	d40b      	bmi.n	8002b0a <HAL_ADC_Init+0x72>
 8002af2:	2118      	movs	r1, #24
 8002af4:	68da      	ldr	r2, [r3, #12]
 8002af6:	438a      	bics	r2, r1
 8002af8:	68a1      	ldr	r1, [r4, #8]
 8002afa:	430a      	orrs	r2, r1
 8002afc:	60da      	str	r2, [r3, #12]
 8002afe:	6919      	ldr	r1, [r3, #16]
 8002b00:	6862      	ldr	r2, [r4, #4]
 8002b02:	0089      	lsls	r1, r1, #2
 8002b04:	0889      	lsrs	r1, r1, #2
 8002b06:	4311      	orrs	r1, r2
 8002b08:	6119      	str	r1, [r3, #16]
 8002b0a:	68da      	ldr	r2, [r3, #12]
 8002b0c:	4934      	ldr	r1, [pc, #208]	; (8002be0 <HAL_ADC_Init+0x148>)
 8002b0e:	400a      	ands	r2, r1
 8002b10:	60da      	str	r2, [r3, #12]
 8002b12:	6aa2      	ldr	r2, [r4, #40]	; 0x28
 8002b14:	7e26      	ldrb	r6, [r4, #24]
 8002b16:	1e57      	subs	r7, r2, #1
 8002b18:	1e7a      	subs	r2, r7, #1
 8002b1a:	4197      	sbcs	r7, r2
 8002b1c:	7e61      	ldrb	r1, [r4, #25]
 8002b1e:	68e2      	ldr	r2, [r4, #12]
 8002b20:	03c9      	lsls	r1, r1, #15
 8002b22:	03b6      	lsls	r6, r6, #14
 8002b24:	430e      	orrs	r6, r1
 8002b26:	7ea5      	ldrb	r5, [r4, #26]
 8002b28:	4316      	orrs	r6, r2
 8002b2a:	6922      	ldr	r2, [r4, #16]
 8002b2c:	0369      	lsls	r1, r5, #13
 8002b2e:	033f      	lsls	r7, r7, #12
 8002b30:	430e      	orrs	r6, r1
 8002b32:	2a02      	cmp	r2, #2
 8002b34:	d100      	bne.n	8002b38 <HAL_ADC_Init+0xa0>
 8002b36:	2004      	movs	r0, #4
 8002b38:	1d62      	adds	r2, r4, #5
 8002b3a:	7fd2      	ldrb	r2, [r2, #31]
 8002b3c:	7ee1      	ldrb	r1, [r4, #27]
 8002b3e:	0052      	lsls	r2, r2, #1
 8002b40:	4332      	orrs	r2, r6
 8002b42:	433a      	orrs	r2, r7
 8002b44:	4302      	orrs	r2, r0
 8002b46:	2901      	cmp	r1, #1
 8002b48:	d104      	bne.n	8002b54 <HAL_ADC_Init+0xbc>
 8002b4a:	2d00      	cmp	r5, #0
 8002b4c:	d12c      	bne.n	8002ba8 <HAL_ADC_Init+0x110>
 8002b4e:	2180      	movs	r1, #128	; 0x80
 8002b50:	0249      	lsls	r1, r1, #9
 8002b52:	430a      	orrs	r2, r1
 8002b54:	20c2      	movs	r0, #194	; 0xc2
 8002b56:	69e1      	ldr	r1, [r4, #28]
 8002b58:	30ff      	adds	r0, #255	; 0xff
 8002b5a:	4281      	cmp	r1, r0
 8002b5c:	d002      	beq.n	8002b64 <HAL_ADC_Init+0xcc>
 8002b5e:	6a20      	ldr	r0, [r4, #32]
 8002b60:	4301      	orrs	r1, r0
 8002b62:	430a      	orrs	r2, r1
 8002b64:	2080      	movs	r0, #128	; 0x80
 8002b66:	68d9      	ldr	r1, [r3, #12]
 8002b68:	0540      	lsls	r0, r0, #21
 8002b6a:	4311      	orrs	r1, r2
 8002b6c:	60d9      	str	r1, [r3, #12]
 8002b6e:	6ae1      	ldr	r1, [r4, #44]	; 0x2c
 8002b70:	4281      	cmp	r1, r0
 8002b72:	d002      	beq.n	8002b7a <HAL_ADC_Init+0xe2>
 8002b74:	1e48      	subs	r0, r1, #1
 8002b76:	2806      	cmp	r0, #6
 8002b78:	d807      	bhi.n	8002b8a <HAL_ADC_Init+0xf2>
 8002b7a:	2507      	movs	r5, #7
 8002b7c:	6958      	ldr	r0, [r3, #20]
 8002b7e:	4029      	ands	r1, r5
 8002b80:	43a8      	bics	r0, r5
 8002b82:	6158      	str	r0, [r3, #20]
 8002b84:	6958      	ldr	r0, [r3, #20]
 8002b86:	4301      	orrs	r1, r0
 8002b88:	6159      	str	r1, [r3, #20]
 8002b8a:	68db      	ldr	r3, [r3, #12]
 8002b8c:	4915      	ldr	r1, [pc, #84]	; (8002be4 <HAL_ADC_Init+0x14c>)
 8002b8e:	400b      	ands	r3, r1
 8002b90:	4293      	cmp	r3, r2
 8002b92:	d111      	bne.n	8002bb8 <HAL_ADC_Init+0x120>
 8002b94:	2000      	movs	r0, #0
 8002b96:	2203      	movs	r2, #3
 8002b98:	63e0      	str	r0, [r4, #60]	; 0x3c
 8002b9a:	6ba3      	ldr	r3, [r4, #56]	; 0x38
 8002b9c:	4393      	bics	r3, r2
 8002b9e:	001a      	movs	r2, r3
 8002ba0:	2301      	movs	r3, #1
 8002ba2:	4313      	orrs	r3, r2
 8002ba4:	63a3      	str	r3, [r4, #56]	; 0x38
 8002ba6:	bdf8      	pop	{r3, r4, r5, r6, r7, pc}
 8002ba8:	2020      	movs	r0, #32
 8002baa:	6ba5      	ldr	r5, [r4, #56]	; 0x38
 8002bac:	4328      	orrs	r0, r5
 8002bae:	63a0      	str	r0, [r4, #56]	; 0x38
 8002bb0:	6be0      	ldr	r0, [r4, #60]	; 0x3c
 8002bb2:	4301      	orrs	r1, r0
 8002bb4:	63e1      	str	r1, [r4, #60]	; 0x3c
 8002bb6:	e7cd      	b.n	8002b54 <HAL_ADC_Init+0xbc>
 8002bb8:	2212      	movs	r2, #18
 8002bba:	6ba3      	ldr	r3, [r4, #56]	; 0x38
 8002bbc:	2001      	movs	r0, #1
 8002bbe:	4393      	bics	r3, r2
 8002bc0:	001a      	movs	r2, r3
 8002bc2:	2310      	movs	r3, #16
 8002bc4:	4313      	orrs	r3, r2
 8002bc6:	63a3      	str	r3, [r4, #56]	; 0x38
 8002bc8:	6be3      	ldr	r3, [r4, #60]	; 0x3c
 8002bca:	4303      	orrs	r3, r0
 8002bcc:	63e3      	str	r3, [r4, #60]	; 0x3c
 8002bce:	e7ea      	b.n	8002ba6 <HAL_ADC_Init+0x10e>
 8002bd0:	2310      	movs	r3, #16
 8002bd2:	6ba2      	ldr	r2, [r4, #56]	; 0x38
 8002bd4:	2001      	movs	r0, #1
 8002bd6:	4313      	orrs	r3, r2
 8002bd8:	63a3      	str	r3, [r4, #56]	; 0x38
 8002bda:	e7e4      	b.n	8002ba6 <HAL_ADC_Init+0x10e>
 8002bdc:	fffffefd 	.word	0xfffffefd
 8002be0:	fffe0219 	.word	0xfffe0219
 8002be4:	833fffe7 	.word	0x833fffe7

08002be8 <HAL_ADC_Start>:
 8002be8:	6803      	ldr	r3, [r0, #0]
 8002bea:	b570      	push	{r4, r5, r6, lr}
 8002bec:	689b      	ldr	r3, [r3, #8]
 8002bee:	0004      	movs	r4, r0
 8002bf0:	2002      	movs	r0, #2
 8002bf2:	075b      	lsls	r3, r3, #29
 8002bf4:	d41a      	bmi.n	8002c2c <HAL_ADC_Start+0x44>
 8002bf6:	0025      	movs	r5, r4
 8002bf8:	3534      	adds	r5, #52	; 0x34
 8002bfa:	782b      	ldrb	r3, [r5, #0]
 8002bfc:	2b01      	cmp	r3, #1
 8002bfe:	d015      	beq.n	8002c2c <HAL_ADC_Start+0x44>
 8002c00:	2301      	movs	r3, #1
 8002c02:	702b      	strb	r3, [r5, #0]
 8002c04:	7e63      	ldrb	r3, [r4, #25]
 8002c06:	2b01      	cmp	r3, #1
 8002c08:	d111      	bne.n	8002c2e <HAL_ADC_Start+0x46>
 8002c0a:	6ba3      	ldr	r3, [r4, #56]	; 0x38
 8002c0c:	4a0b      	ldr	r2, [pc, #44]	; (8002c3c <HAL_ADC_Start+0x54>)
 8002c0e:	2000      	movs	r0, #0
 8002c10:	401a      	ands	r2, r3
 8002c12:	2380      	movs	r3, #128	; 0x80
 8002c14:	005b      	lsls	r3, r3, #1
 8002c16:	4313      	orrs	r3, r2
 8002c18:	221c      	movs	r2, #28
 8002c1a:	63a3      	str	r3, [r4, #56]	; 0x38
 8002c1c:	63e0      	str	r0, [r4, #60]	; 0x3c
 8002c1e:	7028      	strb	r0, [r5, #0]
 8002c20:	6823      	ldr	r3, [r4, #0]
 8002c22:	601a      	str	r2, [r3, #0]
 8002c24:	6899      	ldr	r1, [r3, #8]
 8002c26:	3a18      	subs	r2, #24
 8002c28:	430a      	orrs	r2, r1
 8002c2a:	609a      	str	r2, [r3, #8]
 8002c2c:	bd70      	pop	{r4, r5, r6, pc}
 8002c2e:	0020      	movs	r0, r4
 8002c30:	f7ff fee2 	bl	80029f8 <ADC_Enable>
 8002c34:	2800      	cmp	r0, #0
 8002c36:	d0e8      	beq.n	8002c0a <HAL_ADC_Start+0x22>
 8002c38:	e7f8      	b.n	8002c2c <HAL_ADC_Start+0x44>
 8002c3a:	46c0      	nop			; (mov r8, r8)
 8002c3c:	fffff0fe 	.word	0xfffff0fe

08002c40 <HAL_ADC_PollForConversion>:
 8002c40:	b5f8      	push	{r3, r4, r5, r6, r7, lr}
 8002c42:	6945      	ldr	r5, [r0, #20]
 8002c44:	0004      	movs	r4, r0
 8002c46:	000e      	movs	r6, r1
 8002c48:	2d08      	cmp	r5, #8
 8002c4a:	d00d      	beq.n	8002c68 <HAL_ADC_PollForConversion+0x28>
 8002c4c:	6803      	ldr	r3, [r0, #0]
 8002c4e:	2001      	movs	r0, #1
 8002c50:	68db      	ldr	r3, [r3, #12]
 8002c52:	250c      	movs	r5, #12
 8002c54:	4203      	tst	r3, r0
 8002c56:	d007      	beq.n	8002c68 <HAL_ADC_PollForConversion+0x28>
 8002c58:	2320      	movs	r3, #32
 8002c5a:	6ba2      	ldr	r2, [r4, #56]	; 0x38
 8002c5c:	3434      	adds	r4, #52	; 0x34
 8002c5e:	4313      	orrs	r3, r2
 8002c60:	6063      	str	r3, [r4, #4]
 8002c62:	2300      	movs	r3, #0
 8002c64:	7023      	strb	r3, [r4, #0]
 8002c66:	bdf8      	pop	{r3, r4, r5, r6, r7, pc}
 8002c68:	f7ff feae 	bl	80029c8 <HAL_GetTick>
 8002c6c:	0007      	movs	r7, r0
 8002c6e:	6823      	ldr	r3, [r4, #0]
 8002c70:	681a      	ldr	r2, [r3, #0]
 8002c72:	4215      	tst	r5, r2
 8002c74:	d022      	beq.n	8002cbc <HAL_ADC_PollForConversion+0x7c>
 8002c76:	2280      	movs	r2, #128	; 0x80
 8002c78:	6ba1      	ldr	r1, [r4, #56]	; 0x38
 8002c7a:	0092      	lsls	r2, r2, #2
 8002c7c:	430a      	orrs	r2, r1
 8002c7e:	63a2      	str	r2, [r4, #56]	; 0x38
 8002c80:	22c0      	movs	r2, #192	; 0xc0
 8002c82:	68d9      	ldr	r1, [r3, #12]
 8002c84:	0112      	lsls	r2, r2, #4
 8002c86:	4211      	tst	r1, r2
 8002c88:	d112      	bne.n	8002cb0 <HAL_ADC_PollForConversion+0x70>
 8002c8a:	7ea2      	ldrb	r2, [r4, #26]
 8002c8c:	2a00      	cmp	r2, #0
 8002c8e:	d10f      	bne.n	8002cb0 <HAL_ADC_PollForConversion+0x70>
 8002c90:	681a      	ldr	r2, [r3, #0]
 8002c92:	0712      	lsls	r2, r2, #28
 8002c94:	d50c      	bpl.n	8002cb0 <HAL_ADC_PollForConversion+0x70>
 8002c96:	689a      	ldr	r2, [r3, #8]
 8002c98:	0752      	lsls	r2, r2, #29
 8002c9a:	d427      	bmi.n	8002cec <HAL_ADC_PollForConversion+0xac>
 8002c9c:	210c      	movs	r1, #12
 8002c9e:	685a      	ldr	r2, [r3, #4]
 8002ca0:	438a      	bics	r2, r1
 8002ca2:	605a      	str	r2, [r3, #4]
 8002ca4:	6ba2      	ldr	r2, [r4, #56]	; 0x38
 8002ca6:	4917      	ldr	r1, [pc, #92]	; (8002d04 <HAL_ADC_PollForConversion+0xc4>)
 8002ca8:	4011      	ands	r1, r2
 8002caa:	2201      	movs	r2, #1
 8002cac:	430a      	orrs	r2, r1
 8002cae:	63a2      	str	r2, [r4, #56]	; 0x38
 8002cb0:	7e20      	ldrb	r0, [r4, #24]
 8002cb2:	2800      	cmp	r0, #0
 8002cb4:	d123      	bne.n	8002cfe <HAL_ADC_PollForConversion+0xbe>
 8002cb6:	220c      	movs	r2, #12
 8002cb8:	601a      	str	r2, [r3, #0]
 8002cba:	e7d4      	b.n	8002c66 <HAL_ADC_PollForConversion+0x26>
 8002cbc:	1c72      	adds	r2, r6, #1
 8002cbe:	d0d7      	beq.n	8002c70 <HAL_ADC_PollForConversion+0x30>
 8002cc0:	2e00      	cmp	r6, #0
 8002cc2:	d10d      	bne.n	8002ce0 <HAL_ADC_PollForConversion+0xa0>
 8002cc4:	002a      	movs	r2, r5
 8002cc6:	6823      	ldr	r3, [r4, #0]
 8002cc8:	681b      	ldr	r3, [r3, #0]
 8002cca:	401a      	ands	r2, r3
 8002ccc:	421d      	tst	r5, r3
 8002cce:	d1ce      	bne.n	8002c6e <HAL_ADC_PollForConversion+0x2e>
 8002cd0:	2304      	movs	r3, #4
 8002cd2:	6ba1      	ldr	r1, [r4, #56]	; 0x38
 8002cd4:	3434      	adds	r4, #52	; 0x34
 8002cd6:	430b      	orrs	r3, r1
 8002cd8:	6063      	str	r3, [r4, #4]
 8002cda:	2003      	movs	r0, #3
 8002cdc:	7022      	strb	r2, [r4, #0]
 8002cde:	e7c2      	b.n	8002c66 <HAL_ADC_PollForConversion+0x26>
 8002ce0:	f7ff fe72 	bl	80029c8 <HAL_GetTick>
 8002ce4:	1bc0      	subs	r0, r0, r7
 8002ce6:	42b0      	cmp	r0, r6
 8002ce8:	d8ec      	bhi.n	8002cc4 <HAL_ADC_PollForConversion+0x84>
 8002cea:	e7c0      	b.n	8002c6e <HAL_ADC_PollForConversion+0x2e>
 8002cec:	2220      	movs	r2, #32
 8002cee:	6ba1      	ldr	r1, [r4, #56]	; 0x38
 8002cf0:	430a      	orrs	r2, r1
 8002cf2:	63a2      	str	r2, [r4, #56]	; 0x38
 8002cf4:	2201      	movs	r2, #1
 8002cf6:	6be1      	ldr	r1, [r4, #60]	; 0x3c
 8002cf8:	430a      	orrs	r2, r1
 8002cfa:	63e2      	str	r2, [r4, #60]	; 0x3c
 8002cfc:	e7d8      	b.n	8002cb0 <HAL_ADC_PollForConversion+0x70>
 8002cfe:	2000      	movs	r0, #0
 8002d00:	e7b1      	b.n	8002c66 <HAL_ADC_PollForConversion+0x26>
 8002d02:	46c0      	nop			; (mov r8, r8)
 8002d04:	fffffefe 	.word	0xfffffefe

08002d08 <HAL_ADC_GetValue>:
 8002d08:	6803      	ldr	r3, [r0, #0]
 8002d0a:	6c18      	ldr	r0, [r3, #64]	; 0x40
 8002d0c:	4770      	bx	lr
	...

08002d10 <HAL_ADC_ConfigChannel>:
 8002d10:	b5f0      	push	{r4, r5, r6, r7, lr}
 8002d12:	2300      	movs	r3, #0
 8002d14:	0004      	movs	r4, r0
 8002d16:	b085      	sub	sp, #20
 8002d18:	9303      	str	r3, [sp, #12]
 8002d1a:	3434      	adds	r4, #52	; 0x34
 8002d1c:	7823      	ldrb	r3, [r4, #0]
 8002d1e:	0002      	movs	r2, r0
 8002d20:	6ac6      	ldr	r6, [r0, #44]	; 0x2c
 8002d22:	2002      	movs	r0, #2
 8002d24:	2b01      	cmp	r3, #1
 8002d26:	d02f      	beq.n	8002d88 <HAL_ADC_ConfigChannel+0x78>
 8002d28:	3801      	subs	r0, #1
 8002d2a:	7020      	strb	r0, [r4, #0]
 8002d2c:	6813      	ldr	r3, [r2, #0]
 8002d2e:	2704      	movs	r7, #4
 8002d30:	689d      	ldr	r5, [r3, #8]
 8002d32:	46ac      	mov	ip, r5
 8002d34:	403d      	ands	r5, r7
 8002d36:	9501      	str	r5, [sp, #4]
 8002d38:	4665      	mov	r5, ip
 8002d3a:	423d      	tst	r5, r7
 8002d3c:	d151      	bne.n	8002de2 <HAL_ADC_ConfigChannel+0xd2>
 8002d3e:	680f      	ldr	r7, [r1, #0]
 8002d40:	4d2a      	ldr	r5, [pc, #168]	; (8002dec <HAL_ADC_ConfigChannel+0xdc>)
 8002d42:	003a      	movs	r2, r7
 8002d44:	46ac      	mov	ip, r5
 8002d46:	684d      	ldr	r5, [r1, #4]
 8002d48:	40b8      	lsls	r0, r7
 8002d4a:	3a10      	subs	r2, #16
 8002d4c:	4565      	cmp	r5, ip
 8002d4e:	d037      	beq.n	8002dc0 <HAL_ADC_ConfigChannel+0xb0>
 8002d50:	6a9d      	ldr	r5, [r3, #40]	; 0x28
 8002d52:	4328      	orrs	r0, r5
 8002d54:	6298      	str	r0, [r3, #40]	; 0x28
 8002d56:	2080      	movs	r0, #128	; 0x80
 8002d58:	0540      	lsls	r0, r0, #21
 8002d5a:	4286      	cmp	r6, r0
 8002d5c:	d00f      	beq.n	8002d7e <HAL_ADC_ConfigChannel+0x6e>
 8002d5e:	3e01      	subs	r6, #1
 8002d60:	2e06      	cmp	r6, #6
 8002d62:	d90c      	bls.n	8002d7e <HAL_ADC_ConfigChannel+0x6e>
 8002d64:	2007      	movs	r0, #7
 8002d66:	695d      	ldr	r5, [r3, #20]
 8002d68:	6889      	ldr	r1, [r1, #8]
 8002d6a:	4005      	ands	r5, r0
 8002d6c:	42a9      	cmp	r1, r5
 8002d6e:	d006      	beq.n	8002d7e <HAL_ADC_ConfigChannel+0x6e>
 8002d70:	695d      	ldr	r5, [r3, #20]
 8002d72:	4001      	ands	r1, r0
 8002d74:	4385      	bics	r5, r0
 8002d76:	615d      	str	r5, [r3, #20]
 8002d78:	695d      	ldr	r5, [r3, #20]
 8002d7a:	4329      	orrs	r1, r5
 8002d7c:	6159      	str	r1, [r3, #20]
 8002d7e:	2a01      	cmp	r2, #1
 8002d80:	d904      	bls.n	8002d8c <HAL_ADC_ConfigChannel+0x7c>
 8002d82:	2000      	movs	r0, #0
 8002d84:	2300      	movs	r3, #0
 8002d86:	7023      	strb	r3, [r4, #0]
 8002d88:	b005      	add	sp, #20
 8002d8a:	bdf0      	pop	{r4, r5, r6, r7, pc}
 8002d8c:	4a18      	ldr	r2, [pc, #96]	; (8002df0 <HAL_ADC_ConfigChannel+0xe0>)
 8002d8e:	2180      	movs	r1, #128	; 0x80
 8002d90:	6813      	ldr	r3, [r2, #0]
 8002d92:	2f10      	cmp	r7, #16
 8002d94:	d012      	beq.n	8002dbc <HAL_ADC_ConfigChannel+0xac>
 8002d96:	03c9      	lsls	r1, r1, #15
 8002d98:	430b      	orrs	r3, r1
 8002d9a:	6013      	str	r3, [r2, #0]
 8002d9c:	2f10      	cmp	r7, #16
 8002d9e:	d1f0      	bne.n	8002d82 <HAL_ADC_ConfigChannel+0x72>
 8002da0:	4b14      	ldr	r3, [pc, #80]	; (8002df4 <HAL_ADC_ConfigChannel+0xe4>)
 8002da2:	4915      	ldr	r1, [pc, #84]	; (8002df8 <HAL_ADC_ConfigChannel+0xe8>)
 8002da4:	6818      	ldr	r0, [r3, #0]
 8002da6:	f7fe f9b9 	bl	800111c <__udivsi3>
 8002daa:	230a      	movs	r3, #10
 8002dac:	4343      	muls	r3, r0
 8002dae:	9303      	str	r3, [sp, #12]
 8002db0:	9b03      	ldr	r3, [sp, #12]
 8002db2:	2b00      	cmp	r3, #0
 8002db4:	d0e5      	beq.n	8002d82 <HAL_ADC_ConfigChannel+0x72>
 8002db6:	9b03      	ldr	r3, [sp, #12]
 8002db8:	3b01      	subs	r3, #1
 8002dba:	e7f8      	b.n	8002dae <HAL_ADC_ConfigChannel+0x9e>
 8002dbc:	0409      	lsls	r1, r1, #16
 8002dbe:	e7eb      	b.n	8002d98 <HAL_ADC_ConfigChannel+0x88>
 8002dc0:	6a99      	ldr	r1, [r3, #40]	; 0x28
 8002dc2:	4381      	bics	r1, r0
 8002dc4:	6299      	str	r1, [r3, #40]	; 0x28
 8002dc6:	2a01      	cmp	r2, #1
 8002dc8:	d8db      	bhi.n	8002d82 <HAL_ADC_ConfigChannel+0x72>
 8002dca:	4253      	negs	r3, r2
 8002dcc:	415a      	adcs	r2, r3
 8002dce:	4252      	negs	r2, r2
 8002dd0:	4907      	ldr	r1, [pc, #28]	; (8002df0 <HAL_ADC_ConfigChannel+0xe0>)
 8002dd2:	0d92      	lsrs	r2, r2, #22
 8002dd4:	0593      	lsls	r3, r2, #22
 8002dd6:	4a09      	ldr	r2, [pc, #36]	; (8002dfc <HAL_ADC_ConfigChannel+0xec>)
 8002dd8:	6808      	ldr	r0, [r1, #0]
 8002dda:	189b      	adds	r3, r3, r2
 8002ddc:	4003      	ands	r3, r0
 8002dde:	600b      	str	r3, [r1, #0]
 8002de0:	e7cf      	b.n	8002d82 <HAL_ADC_ConfigChannel+0x72>
 8002de2:	2320      	movs	r3, #32
 8002de4:	6b91      	ldr	r1, [r2, #56]	; 0x38
 8002de6:	430b      	orrs	r3, r1
 8002de8:	6393      	str	r3, [r2, #56]	; 0x38
 8002dea:	e7cb      	b.n	8002d84 <HAL_ADC_ConfigChannel+0x74>
 8002dec:	00001001 	.word	0x00001001
 8002df0:	40012708 	.word	0x40012708
 8002df4:	20000114 	.word	0x20000114
 8002df8:	000f4240 	.word	0x000f4240
 8002dfc:	ffbfffff 	.word	0xffbfffff

08002e00 <HAL_ADC_GetState>:
 8002e00:	6b80      	ldr	r0, [r0, #56]	; 0x38
 8002e02:	4770      	bx	lr

08002e04 <HAL_ADCEx_Calibration_Start>:
 8002e04:	b5f8      	push	{r3, r4, r5, r6, r7, lr}
 8002e06:	0006      	movs	r6, r0
 8002e08:	3634      	adds	r6, #52	; 0x34
 8002e0a:	7833      	ldrb	r3, [r6, #0]
 8002e0c:	0004      	movs	r4, r0
 8002e0e:	2002      	movs	r0, #2
 8002e10:	2b01      	cmp	r3, #1
 8002e12:	d046      	beq.n	8002ea2 <HAL_ADCEx_Calibration_Start+0x9e>
 8002e14:	2301      	movs	r3, #1
 8002e16:	2103      	movs	r1, #3
 8002e18:	7033      	strb	r3, [r6, #0]
 8002e1a:	6823      	ldr	r3, [r4, #0]
 8002e1c:	689a      	ldr	r2, [r3, #8]
 8002e1e:	400a      	ands	r2, r1
 8002e20:	2a01      	cmp	r2, #1
 8002e22:	d105      	bne.n	8002e30 <HAL_ADCEx_Calibration_Start+0x2c>
 8002e24:	6819      	ldr	r1, [r3, #0]
 8002e26:	4211      	tst	r1, r2
 8002e28:	d13c      	bne.n	8002ea4 <HAL_ADCEx_Calibration_Start+0xa0>
 8002e2a:	68da      	ldr	r2, [r3, #12]
 8002e2c:	0412      	lsls	r2, r2, #16
 8002e2e:	d439      	bmi.n	8002ea4 <HAL_ADCEx_Calibration_Start+0xa0>
 8002e30:	6ba2      	ldr	r2, [r4, #56]	; 0x38
 8002e32:	491f      	ldr	r1, [pc, #124]	; (8002eb0 <HAL_ADCEx_Calibration_Start+0xac>)
 8002e34:	4011      	ands	r1, r2
 8002e36:	2202      	movs	r2, #2
 8002e38:	430a      	orrs	r2, r1
 8002e3a:	2103      	movs	r1, #3
 8002e3c:	63a2      	str	r2, [r4, #56]	; 0x38
 8002e3e:	68dd      	ldr	r5, [r3, #12]
 8002e40:	68da      	ldr	r2, [r3, #12]
 8002e42:	438a      	bics	r2, r1
 8002e44:	60da      	str	r2, [r3, #12]
 8002e46:	2280      	movs	r2, #128	; 0x80
 8002e48:	6899      	ldr	r1, [r3, #8]
 8002e4a:	0612      	lsls	r2, r2, #24
 8002e4c:	430a      	orrs	r2, r1
 8002e4e:	609a      	str	r2, [r3, #8]
 8002e50:	f7ff fdba 	bl	80029c8 <HAL_GetTick>
 8002e54:	0007      	movs	r7, r0
 8002e56:	6823      	ldr	r3, [r4, #0]
 8002e58:	689a      	ldr	r2, [r3, #8]
 8002e5a:	2a00      	cmp	r2, #0
 8002e5c:	db0e      	blt.n	8002e7c <HAL_ADCEx_Calibration_Start+0x78>
 8002e5e:	2203      	movs	r2, #3
 8002e60:	68d9      	ldr	r1, [r3, #12]
 8002e62:	4015      	ands	r5, r2
 8002e64:	430d      	orrs	r5, r1
 8002e66:	60dd      	str	r5, [r3, #12]
 8002e68:	6ba3      	ldr	r3, [r4, #56]	; 0x38
 8002e6a:	2000      	movs	r0, #0
 8002e6c:	4393      	bics	r3, r2
 8002e6e:	001a      	movs	r2, r3
 8002e70:	2301      	movs	r3, #1
 8002e72:	4313      	orrs	r3, r2
 8002e74:	63a3      	str	r3, [r4, #56]	; 0x38
 8002e76:	2300      	movs	r3, #0
 8002e78:	7033      	strb	r3, [r6, #0]
 8002e7a:	e012      	b.n	8002ea2 <HAL_ADCEx_Calibration_Start+0x9e>
 8002e7c:	f7ff fda4 	bl	80029c8 <HAL_GetTick>
 8002e80:	1bc0      	subs	r0, r0, r7
 8002e82:	2802      	cmp	r0, #2
 8002e84:	d9e7      	bls.n	8002e56 <HAL_ADCEx_Calibration_Start+0x52>
 8002e86:	6823      	ldr	r3, [r4, #0]
 8002e88:	689b      	ldr	r3, [r3, #8]
 8002e8a:	2b00      	cmp	r3, #0
 8002e8c:	dae3      	bge.n	8002e56 <HAL_ADCEx_Calibration_Start+0x52>
 8002e8e:	2212      	movs	r2, #18
 8002e90:	6ba3      	ldr	r3, [r4, #56]	; 0x38
 8002e92:	2001      	movs	r0, #1
 8002e94:	4393      	bics	r3, r2
 8002e96:	001a      	movs	r2, r3
 8002e98:	2310      	movs	r3, #16
 8002e9a:	4313      	orrs	r3, r2
 8002e9c:	63a3      	str	r3, [r4, #56]	; 0x38
 8002e9e:	2300      	movs	r3, #0
 8002ea0:	7033      	strb	r3, [r6, #0]
 8002ea2:	bdf8      	pop	{r3, r4, r5, r6, r7, pc}
 8002ea4:	2320      	movs	r3, #32
 8002ea6:	6ba2      	ldr	r2, [r4, #56]	; 0x38
 8002ea8:	2001      	movs	r0, #1
 8002eaa:	4313      	orrs	r3, r2
 8002eac:	63a3      	str	r3, [r4, #56]	; 0x38
 8002eae:	e7e2      	b.n	8002e76 <HAL_ADCEx_Calibration_Start+0x72>
 8002eb0:	fffffefd 	.word	0xfffffefd

08002eb4 <HAL_NVIC_SetPriority>:
 8002eb4:	b530      	push	{r4, r5, lr}
 8002eb6:	25ff      	movs	r5, #255	; 0xff
 8002eb8:	2403      	movs	r4, #3
 8002eba:	002a      	movs	r2, r5
 8002ebc:	4004      	ands	r4, r0
 8002ebe:	00e4      	lsls	r4, r4, #3
 8002ec0:	40a2      	lsls	r2, r4
 8002ec2:	0189      	lsls	r1, r1, #6
 8002ec4:	4029      	ands	r1, r5
 8002ec6:	43d2      	mvns	r2, r2
 8002ec8:	40a1      	lsls	r1, r4
 8002eca:	b2c3      	uxtb	r3, r0
 8002ecc:	2800      	cmp	r0, #0
 8002ece:	db0a      	blt.n	8002ee6 <HAL_NVIC_SetPriority+0x32>
 8002ed0:	24c0      	movs	r4, #192	; 0xc0
 8002ed2:	4b0b      	ldr	r3, [pc, #44]	; (8002f00 <HAL_NVIC_SetPriority+0x4c>)
 8002ed4:	0880      	lsrs	r0, r0, #2
 8002ed6:	0080      	lsls	r0, r0, #2
 8002ed8:	18c0      	adds	r0, r0, r3
 8002eda:	00a4      	lsls	r4, r4, #2
 8002edc:	5903      	ldr	r3, [r0, r4]
 8002ede:	401a      	ands	r2, r3
 8002ee0:	4311      	orrs	r1, r2
 8002ee2:	5101      	str	r1, [r0, r4]
 8002ee4:	bd30      	pop	{r4, r5, pc}
 8002ee6:	200f      	movs	r0, #15
 8002ee8:	4003      	ands	r3, r0
 8002eea:	3b08      	subs	r3, #8
 8002eec:	4805      	ldr	r0, [pc, #20]	; (8002f04 <HAL_NVIC_SetPriority+0x50>)
 8002eee:	089b      	lsrs	r3, r3, #2
 8002ef0:	009b      	lsls	r3, r3, #2
 8002ef2:	181b      	adds	r3, r3, r0
 8002ef4:	69d8      	ldr	r0, [r3, #28]
 8002ef6:	4002      	ands	r2, r0
 8002ef8:	4311      	orrs	r1, r2
 8002efa:	61d9      	str	r1, [r3, #28]
 8002efc:	e7f2      	b.n	8002ee4 <HAL_NVIC_SetPriority+0x30>
 8002efe:	46c0      	nop			; (mov r8, r8)
 8002f00:	e000e100 	.word	0xe000e100
 8002f04:	e000ed00 	.word	0xe000ed00

08002f08 <HAL_NVIC_SystemReset>:
 8002f08:	f3bf 8f4f 	dsb	sy
 8002f0c:	4b03      	ldr	r3, [pc, #12]	; (8002f1c <HAL_NVIC_SystemReset+0x14>)
 8002f0e:	4a04      	ldr	r2, [pc, #16]	; (8002f20 <HAL_NVIC_SystemReset+0x18>)
 8002f10:	60da      	str	r2, [r3, #12]
 8002f12:	f3bf 8f4f 	dsb	sy
 8002f16:	46c0      	nop			; (mov r8, r8)
 8002f18:	e7fd      	b.n	8002f16 <HAL_NVIC_SystemReset+0xe>
 8002f1a:	46c0      	nop			; (mov r8, r8)
 8002f1c:	e000ed00 	.word	0xe000ed00
 8002f20:	05fa0004 	.word	0x05fa0004

08002f24 <HAL_SYSTICK_Config>:
 8002f24:	2280      	movs	r2, #128	; 0x80
 8002f26:	1e43      	subs	r3, r0, #1
 8002f28:	0452      	lsls	r2, r2, #17
 8002f2a:	2001      	movs	r0, #1
 8002f2c:	4293      	cmp	r3, r2
 8002f2e:	d20d      	bcs.n	8002f4c <HAL_SYSTICK_Config+0x28>
 8002f30:	21c0      	movs	r1, #192	; 0xc0
 8002f32:	4a07      	ldr	r2, [pc, #28]	; (8002f50 <HAL_SYSTICK_Config+0x2c>)
 8002f34:	4807      	ldr	r0, [pc, #28]	; (8002f54 <HAL_SYSTICK_Config+0x30>)
 8002f36:	6053      	str	r3, [r2, #4]
 8002f38:	6a03      	ldr	r3, [r0, #32]
 8002f3a:	0609      	lsls	r1, r1, #24
 8002f3c:	021b      	lsls	r3, r3, #8
 8002f3e:	0a1b      	lsrs	r3, r3, #8
 8002f40:	430b      	orrs	r3, r1
 8002f42:	6203      	str	r3, [r0, #32]
 8002f44:	2000      	movs	r0, #0
 8002f46:	2307      	movs	r3, #7
 8002f48:	6090      	str	r0, [r2, #8]
 8002f4a:	6013      	str	r3, [r2, #0]
 8002f4c:	4770      	bx	lr
 8002f4e:	46c0      	nop			; (mov r8, r8)
 8002f50:	e000e010 	.word	0xe000e010
 8002f54:	e000ed00 	.word	0xe000ed00

08002f58 <FLASH_SetErrorCode>:
 8002f58:	4a0c      	ldr	r2, [pc, #48]	; (8002f8c <FLASH_SetErrorCode+0x34>)
 8002f5a:	2110      	movs	r1, #16
 8002f5c:	68d0      	ldr	r0, [r2, #12]
 8002f5e:	b530      	push	{r4, r5, lr}
 8002f60:	0003      	movs	r3, r0
 8002f62:	400b      	ands	r3, r1
 8002f64:	4208      	tst	r0, r1
 8002f66:	d005      	beq.n	8002f74 <FLASH_SetErrorCode+0x1c>
 8002f68:	2302      	movs	r3, #2
 8002f6a:	4809      	ldr	r0, [pc, #36]	; (8002f90 <FLASH_SetErrorCode+0x38>)
 8002f6c:	69c4      	ldr	r4, [r0, #28]
 8002f6e:	4323      	orrs	r3, r4
 8002f70:	61c3      	str	r3, [r0, #28]
 8002f72:	000b      	movs	r3, r1
 8002f74:	2004      	movs	r0, #4
 8002f76:	68d1      	ldr	r1, [r2, #12]
 8002f78:	4201      	tst	r1, r0
 8002f7a:	d005      	beq.n	8002f88 <FLASH_SetErrorCode+0x30>
 8002f7c:	2101      	movs	r1, #1
 8002f7e:	4c04      	ldr	r4, [pc, #16]	; (8002f90 <FLASH_SetErrorCode+0x38>)
 8002f80:	4303      	orrs	r3, r0
 8002f82:	69e5      	ldr	r5, [r4, #28]
 8002f84:	4329      	orrs	r1, r5
 8002f86:	61e1      	str	r1, [r4, #28]
 8002f88:	60d3      	str	r3, [r2, #12]
 8002f8a:	bd30      	pop	{r4, r5, pc}
 8002f8c:	40022000 	.word	0x40022000
 8002f90:	200007e8 	.word	0x200007e8

08002f94 <HAL_FLASH_Unlock>:
 8002f94:	4b06      	ldr	r3, [pc, #24]	; (8002fb0 <HAL_FLASH_Unlock+0x1c>)
 8002f96:	2000      	movs	r0, #0
 8002f98:	691a      	ldr	r2, [r3, #16]
 8002f9a:	0612      	lsls	r2, r2, #24
 8002f9c:	d506      	bpl.n	8002fac <HAL_FLASH_Unlock+0x18>
 8002f9e:	4a05      	ldr	r2, [pc, #20]	; (8002fb4 <HAL_FLASH_Unlock+0x20>)
 8002fa0:	605a      	str	r2, [r3, #4]
 8002fa2:	4a05      	ldr	r2, [pc, #20]	; (8002fb8 <HAL_FLASH_Unlock+0x24>)
 8002fa4:	605a      	str	r2, [r3, #4]
 8002fa6:	6918      	ldr	r0, [r3, #16]
 8002fa8:	0600      	lsls	r0, r0, #24
 8002faa:	0fc0      	lsrs	r0, r0, #31
 8002fac:	4770      	bx	lr
 8002fae:	46c0      	nop			; (mov r8, r8)
 8002fb0:	40022000 	.word	0x40022000
 8002fb4:	45670123 	.word	0x45670123
 8002fb8:	cdef89ab 	.word	0xcdef89ab

08002fbc <HAL_FLASH_Lock>:
 8002fbc:	2380      	movs	r3, #128	; 0x80
 8002fbe:	4a03      	ldr	r2, [pc, #12]	; (8002fcc <HAL_FLASH_Lock+0x10>)
 8002fc0:	2000      	movs	r0, #0
 8002fc2:	6911      	ldr	r1, [r2, #16]
 8002fc4:	430b      	orrs	r3, r1
 8002fc6:	6113      	str	r3, [r2, #16]
 8002fc8:	4770      	bx	lr
 8002fca:	46c0      	nop			; (mov r8, r8)
 8002fcc:	40022000 	.word	0x40022000

08002fd0 <FLASH_WaitForLastOperation>:
 8002fd0:	b570      	push	{r4, r5, r6, lr}
 8002fd2:	0004      	movs	r4, r0
 8002fd4:	f7ff fcf8 	bl	80029c8 <HAL_GetTick>
 8002fd8:	2601      	movs	r6, #1
 8002fda:	0005      	movs	r5, r0
 8002fdc:	4b10      	ldr	r3, [pc, #64]	; (8003020 <FLASH_WaitForLastOperation+0x50>)
 8002fde:	68da      	ldr	r2, [r3, #12]
 8002fe0:	4232      	tst	r2, r6
 8002fe2:	d111      	bne.n	8003008 <FLASH_WaitForLastOperation+0x38>
 8002fe4:	2220      	movs	r2, #32
 8002fe6:	68d9      	ldr	r1, [r3, #12]
 8002fe8:	4211      	tst	r1, r2
 8002fea:	d000      	beq.n	8002fee <FLASH_WaitForLastOperation+0x1e>
 8002fec:	60da      	str	r2, [r3, #12]
 8002fee:	68d9      	ldr	r1, [r3, #12]
 8002ff0:	2210      	movs	r2, #16
 8002ff2:	0008      	movs	r0, r1
 8002ff4:	4010      	ands	r0, r2
 8002ff6:	4211      	tst	r1, r2
 8002ff8:	d102      	bne.n	8003000 <FLASH_WaitForLastOperation+0x30>
 8002ffa:	68db      	ldr	r3, [r3, #12]
 8002ffc:	075b      	lsls	r3, r3, #29
 8002ffe:	d508      	bpl.n	8003012 <FLASH_WaitForLastOperation+0x42>
 8003000:	f7ff ffaa 	bl	8002f58 <FLASH_SetErrorCode>
 8003004:	2001      	movs	r0, #1
 8003006:	e004      	b.n	8003012 <FLASH_WaitForLastOperation+0x42>
 8003008:	1c62      	adds	r2, r4, #1
 800300a:	d0e8      	beq.n	8002fde <FLASH_WaitForLastOperation+0xe>
 800300c:	2c00      	cmp	r4, #0
 800300e:	d101      	bne.n	8003014 <FLASH_WaitForLastOperation+0x44>
 8003010:	2003      	movs	r0, #3
 8003012:	bd70      	pop	{r4, r5, r6, pc}
 8003014:	f7ff fcd8 	bl	80029c8 <HAL_GetTick>
 8003018:	1b40      	subs	r0, r0, r5
 800301a:	42a0      	cmp	r0, r4
 800301c:	d9de      	bls.n	8002fdc <FLASH_WaitForLastOperation+0xc>
 800301e:	e7f7      	b.n	8003010 <FLASH_WaitForLastOperation+0x40>
 8003020:	40022000 	.word	0x40022000

08003024 <HAL_FLASH_Program>:
 8003024:	b5f0      	push	{r4, r5, r6, r7, lr}
 8003026:	b085      	sub	sp, #20
 8003028:	9303      	str	r3, [sp, #12]
 800302a:	4b1c      	ldr	r3, [pc, #112]	; (800309c <HAL_FLASH_Program+0x78>)
 800302c:	9101      	str	r1, [sp, #4]
 800302e:	9202      	str	r2, [sp, #8]
 8003030:	7e1a      	ldrb	r2, [r3, #24]
 8003032:	0004      	movs	r4, r0
 8003034:	2002      	movs	r0, #2
 8003036:	2a01      	cmp	r2, #1
 8003038:	d02e      	beq.n	8003098 <HAL_FLASH_Program+0x74>
 800303a:	2201      	movs	r2, #1
 800303c:	4818      	ldr	r0, [pc, #96]	; (80030a0 <HAL_FLASH_Program+0x7c>)
 800303e:	761a      	strb	r2, [r3, #24]
 8003040:	f7ff ffc6 	bl	8002fd0 <FLASH_WaitForLastOperation>
 8003044:	2800      	cmp	r0, #0
 8003046:	d124      	bne.n	8003092 <HAL_FLASH_Program+0x6e>
 8003048:	0026      	movs	r6, r4
 800304a:	2c01      	cmp	r4, #1
 800304c:	d002      	beq.n	8003054 <HAL_FLASH_Program+0x30>
 800304e:	2c02      	cmp	r4, #2
 8003050:	d000      	beq.n	8003054 <HAL_FLASH_Program+0x30>
 8003052:	2604      	movs	r6, #4
 8003054:	2400      	movs	r4, #0
 8003056:	9802      	ldr	r0, [sp, #8]
 8003058:	9903      	ldr	r1, [sp, #12]
 800305a:	0122      	lsls	r2, r4, #4
 800305c:	f7fe f9d4 	bl	8001408 <__aeabi_llsr>
 8003060:	2200      	movs	r2, #0
 8003062:	2701      	movs	r7, #1
 8003064:	4b0d      	ldr	r3, [pc, #52]	; (800309c <HAL_FLASH_Program+0x78>)
 8003066:	4d0f      	ldr	r5, [pc, #60]	; (80030a4 <HAL_FLASH_Program+0x80>)
 8003068:	61da      	str	r2, [r3, #28]
 800306a:	692b      	ldr	r3, [r5, #16]
 800306c:	9a01      	ldr	r2, [sp, #4]
 800306e:	433b      	orrs	r3, r7
 8003070:	612b      	str	r3, [r5, #16]
 8003072:	0063      	lsls	r3, r4, #1
 8003074:	189b      	adds	r3, r3, r2
 8003076:	b280      	uxth	r0, r0
 8003078:	8018      	strh	r0, [r3, #0]
 800307a:	4809      	ldr	r0, [pc, #36]	; (80030a0 <HAL_FLASH_Program+0x7c>)
 800307c:	f7ff ffa8 	bl	8002fd0 <FLASH_WaitForLastOperation>
 8003080:	692b      	ldr	r3, [r5, #16]
 8003082:	43bb      	bics	r3, r7
 8003084:	612b      	str	r3, [r5, #16]
 8003086:	2800      	cmp	r0, #0
 8003088:	d103      	bne.n	8003092 <HAL_FLASH_Program+0x6e>
 800308a:	19e4      	adds	r4, r4, r7
 800308c:	b2e3      	uxtb	r3, r4
 800308e:	429e      	cmp	r6, r3
 8003090:	d8e1      	bhi.n	8003056 <HAL_FLASH_Program+0x32>
 8003092:	2200      	movs	r2, #0
 8003094:	4b01      	ldr	r3, [pc, #4]	; (800309c <HAL_FLASH_Program+0x78>)
 8003096:	761a      	strb	r2, [r3, #24]
 8003098:	b005      	add	sp, #20
 800309a:	bdf0      	pop	{r4, r5, r6, r7, pc}
 800309c:	200007e8 	.word	0x200007e8
 80030a0:	0000c350 	.word	0x0000c350
 80030a4:	40022000 	.word	0x40022000

080030a8 <FLASH_MassErase>:
 80030a8:	2200      	movs	r2, #0
 80030aa:	4b06      	ldr	r3, [pc, #24]	; (80030c4 <FLASH_MassErase+0x1c>)
 80030ac:	61da      	str	r2, [r3, #28]
 80030ae:	4b06      	ldr	r3, [pc, #24]	; (80030c8 <FLASH_MassErase+0x20>)
 80030b0:	3204      	adds	r2, #4
 80030b2:	6919      	ldr	r1, [r3, #16]
 80030b4:	430a      	orrs	r2, r1
 80030b6:	611a      	str	r2, [r3, #16]
 80030b8:	2240      	movs	r2, #64	; 0x40
 80030ba:	6919      	ldr	r1, [r3, #16]
 80030bc:	430a      	orrs	r2, r1
 80030be:	611a      	str	r2, [r3, #16]
 80030c0:	4770      	bx	lr
 80030c2:	46c0      	nop			; (mov r8, r8)
 80030c4:	200007e8 	.word	0x200007e8
 80030c8:	40022000 	.word	0x40022000

080030cc <FLASH_PageErase>:
 80030cc:	2200      	movs	r2, #0
 80030ce:	4b06      	ldr	r3, [pc, #24]	; (80030e8 <FLASH_PageErase+0x1c>)
 80030d0:	61da      	str	r2, [r3, #28]
 80030d2:	4b06      	ldr	r3, [pc, #24]	; (80030ec <FLASH_PageErase+0x20>)
 80030d4:	3202      	adds	r2, #2
 80030d6:	6919      	ldr	r1, [r3, #16]
 80030d8:	430a      	orrs	r2, r1
 80030da:	611a      	str	r2, [r3, #16]
 80030dc:	2240      	movs	r2, #64	; 0x40
 80030de:	6158      	str	r0, [r3, #20]
 80030e0:	6919      	ldr	r1, [r3, #16]
 80030e2:	430a      	orrs	r2, r1
 80030e4:	611a      	str	r2, [r3, #16]
 80030e6:	4770      	bx	lr
 80030e8:	200007e8 	.word	0x200007e8
 80030ec:	40022000 	.word	0x40022000

080030f0 <HAL_FLASHEx_Erase>:
 80030f0:	b5f8      	push	{r3, r4, r5, r6, r7, lr}
 80030f2:	4f21      	ldr	r7, [pc, #132]	; (8003178 <HAL_FLASHEx_Erase+0x88>)
 80030f4:	0004      	movs	r4, r0
 80030f6:	7e3b      	ldrb	r3, [r7, #24]
 80030f8:	000e      	movs	r6, r1
 80030fa:	2002      	movs	r0, #2
 80030fc:	2b01      	cmp	r3, #1
 80030fe:	d00c      	beq.n	800311a <HAL_FLASHEx_Erase+0x2a>
 8003100:	2301      	movs	r3, #1
 8003102:	763b      	strb	r3, [r7, #24]
 8003104:	6823      	ldr	r3, [r4, #0]
 8003106:	481d      	ldr	r0, [pc, #116]	; (800317c <HAL_FLASHEx_Erase+0x8c>)
 8003108:	2b01      	cmp	r3, #1
 800310a:	d112      	bne.n	8003132 <HAL_FLASHEx_Erase+0x42>
 800310c:	f7ff ff60 	bl	8002fd0 <FLASH_WaitForLastOperation>
 8003110:	2800      	cmp	r0, #0
 8003112:	d003      	beq.n	800311c <HAL_FLASHEx_Erase+0x2c>
 8003114:	2001      	movs	r0, #1
 8003116:	2300      	movs	r3, #0
 8003118:	763b      	strb	r3, [r7, #24]
 800311a:	bdf8      	pop	{r3, r4, r5, r6, r7, pc}
 800311c:	f7ff ffc4 	bl	80030a8 <FLASH_MassErase>
 8003120:	4816      	ldr	r0, [pc, #88]	; (800317c <HAL_FLASHEx_Erase+0x8c>)
 8003122:	f7ff ff55 	bl	8002fd0 <FLASH_WaitForLastOperation>
 8003126:	2104      	movs	r1, #4
 8003128:	4a15      	ldr	r2, [pc, #84]	; (8003180 <HAL_FLASHEx_Erase+0x90>)
 800312a:	6913      	ldr	r3, [r2, #16]
 800312c:	438b      	bics	r3, r1
 800312e:	6113      	str	r3, [r2, #16]
 8003130:	e7f1      	b.n	8003116 <HAL_FLASHEx_Erase+0x26>
 8003132:	f7ff ff4d 	bl	8002fd0 <FLASH_WaitForLastOperation>
 8003136:	2800      	cmp	r0, #0
 8003138:	d1ec      	bne.n	8003114 <HAL_FLASHEx_Erase+0x24>
 800313a:	2301      	movs	r3, #1
 800313c:	425b      	negs	r3, r3
 800313e:	6033      	str	r3, [r6, #0]
 8003140:	6865      	ldr	r5, [r4, #4]
 8003142:	3001      	adds	r0, #1
 8003144:	68a3      	ldr	r3, [r4, #8]
 8003146:	6862      	ldr	r2, [r4, #4]
 8003148:	029b      	lsls	r3, r3, #10
 800314a:	189b      	adds	r3, r3, r2
 800314c:	42ab      	cmp	r3, r5
 800314e:	d9e2      	bls.n	8003116 <HAL_FLASHEx_Erase+0x26>
 8003150:	0028      	movs	r0, r5
 8003152:	f7ff ffbb 	bl	80030cc <FLASH_PageErase>
 8003156:	4809      	ldr	r0, [pc, #36]	; (800317c <HAL_FLASHEx_Erase+0x8c>)
 8003158:	f7ff ff3a 	bl	8002fd0 <FLASH_WaitForLastOperation>
 800315c:	2102      	movs	r1, #2
 800315e:	4a08      	ldr	r2, [pc, #32]	; (8003180 <HAL_FLASHEx_Erase+0x90>)
 8003160:	6913      	ldr	r3, [r2, #16]
 8003162:	438b      	bics	r3, r1
 8003164:	6113      	str	r3, [r2, #16]
 8003166:	2800      	cmp	r0, #0
 8003168:	d001      	beq.n	800316e <HAL_FLASHEx_Erase+0x7e>
 800316a:	6035      	str	r5, [r6, #0]
 800316c:	e7d3      	b.n	8003116 <HAL_FLASHEx_Erase+0x26>
 800316e:	2380      	movs	r3, #128	; 0x80
 8003170:	00db      	lsls	r3, r3, #3
 8003172:	18ed      	adds	r5, r5, r3
 8003174:	e7e6      	b.n	8003144 <HAL_FLASHEx_Erase+0x54>
 8003176:	46c0      	nop			; (mov r8, r8)
 8003178:	200007e8 	.word	0x200007e8
 800317c:	0000c350 	.word	0x0000c350
 8003180:	40022000 	.word	0x40022000

08003184 <HAL_GPIO_Init>:
 8003184:	2300      	movs	r3, #0
 8003186:	b5f0      	push	{r4, r5, r6, r7, lr}
 8003188:	b087      	sub	sp, #28
 800318a:	680a      	ldr	r2, [r1, #0]
 800318c:	0014      	movs	r4, r2
 800318e:	40dc      	lsrs	r4, r3
 8003190:	d101      	bne.n	8003196 <HAL_GPIO_Init+0x12>
 8003192:	b007      	add	sp, #28
 8003194:	bdf0      	pop	{r4, r5, r6, r7, pc}
 8003196:	2501      	movs	r5, #1
 8003198:	0014      	movs	r4, r2
 800319a:	409d      	lsls	r5, r3
 800319c:	402c      	ands	r4, r5
 800319e:	9401      	str	r4, [sp, #4]
 80031a0:	422a      	tst	r2, r5
 80031a2:	d100      	bne.n	80031a6 <HAL_GPIO_Init+0x22>
 80031a4:	e095      	b.n	80032d2 <HAL_GPIO_Init+0x14e>
 80031a6:	684a      	ldr	r2, [r1, #4]
 80031a8:	005e      	lsls	r6, r3, #1
 80031aa:	4694      	mov	ip, r2
 80031ac:	2203      	movs	r2, #3
 80031ae:	4664      	mov	r4, ip
 80031b0:	4022      	ands	r2, r4
 80031b2:	2403      	movs	r4, #3
 80031b4:	40b4      	lsls	r4, r6
 80031b6:	43e4      	mvns	r4, r4
 80031b8:	9402      	str	r4, [sp, #8]
 80031ba:	1e54      	subs	r4, r2, #1
 80031bc:	2c01      	cmp	r4, #1
 80031be:	d82a      	bhi.n	8003216 <HAL_GPIO_Init+0x92>
 80031c0:	6887      	ldr	r7, [r0, #8]
 80031c2:	9c02      	ldr	r4, [sp, #8]
 80031c4:	4027      	ands	r7, r4
 80031c6:	68cc      	ldr	r4, [r1, #12]
 80031c8:	40b4      	lsls	r4, r6
 80031ca:	433c      	orrs	r4, r7
 80031cc:	6084      	str	r4, [r0, #8]
 80031ce:	6844      	ldr	r4, [r0, #4]
 80031d0:	2701      	movs	r7, #1
 80031d2:	43ac      	bics	r4, r5
 80031d4:	0025      	movs	r5, r4
 80031d6:	4664      	mov	r4, ip
 80031d8:	0924      	lsrs	r4, r4, #4
 80031da:	403c      	ands	r4, r7
 80031dc:	409c      	lsls	r4, r3
 80031de:	432c      	orrs	r4, r5
 80031e0:	6044      	str	r4, [r0, #4]
 80031e2:	68c5      	ldr	r5, [r0, #12]
 80031e4:	9c02      	ldr	r4, [sp, #8]
 80031e6:	4025      	ands	r5, r4
 80031e8:	688c      	ldr	r4, [r1, #8]
 80031ea:	40b4      	lsls	r4, r6
 80031ec:	432c      	orrs	r4, r5
 80031ee:	60c4      	str	r4, [r0, #12]
 80031f0:	2a02      	cmp	r2, #2
 80031f2:	d112      	bne.n	800321a <HAL_GPIO_Init+0x96>
 80031f4:	08dc      	lsrs	r4, r3, #3
 80031f6:	2507      	movs	r5, #7
 80031f8:	00a4      	lsls	r4, r4, #2
 80031fa:	1904      	adds	r4, r0, r4
 80031fc:	6a27      	ldr	r7, [r4, #32]
 80031fe:	9403      	str	r4, [sp, #12]
 8003200:	240f      	movs	r4, #15
 8003202:	401d      	ands	r5, r3
 8003204:	00ad      	lsls	r5, r5, #2
 8003206:	40ac      	lsls	r4, r5
 8003208:	43a7      	bics	r7, r4
 800320a:	690c      	ldr	r4, [r1, #16]
 800320c:	40ac      	lsls	r4, r5
 800320e:	4327      	orrs	r7, r4
 8003210:	9c03      	ldr	r4, [sp, #12]
 8003212:	6227      	str	r7, [r4, #32]
 8003214:	e001      	b.n	800321a <HAL_GPIO_Init+0x96>
 8003216:	2a03      	cmp	r2, #3
 8003218:	d1e3      	bne.n	80031e2 <HAL_GPIO_Init+0x5e>
 800321a:	6804      	ldr	r4, [r0, #0]
 800321c:	9d02      	ldr	r5, [sp, #8]
 800321e:	40b2      	lsls	r2, r6
 8003220:	4025      	ands	r5, r4
 8003222:	002c      	movs	r4, r5
 8003224:	4314      	orrs	r4, r2
 8003226:	6004      	str	r4, [r0, #0]
 8003228:	24c0      	movs	r4, #192	; 0xc0
 800322a:	4662      	mov	r2, ip
 800322c:	02a4      	lsls	r4, r4, #10
 800322e:	4222      	tst	r2, r4
 8003230:	d04f      	beq.n	80032d2 <HAL_GPIO_Init+0x14e>
 8003232:	2501      	movs	r5, #1
 8003234:	4a28      	ldr	r2, [pc, #160]	; (80032d8 <HAL_GPIO_Init+0x154>)
 8003236:	2790      	movs	r7, #144	; 0x90
 8003238:	6994      	ldr	r4, [r2, #24]
 800323a:	05ff      	lsls	r7, r7, #23
 800323c:	432c      	orrs	r4, r5
 800323e:	6194      	str	r4, [r2, #24]
 8003240:	6992      	ldr	r2, [r2, #24]
 8003242:	089c      	lsrs	r4, r3, #2
 8003244:	402a      	ands	r2, r5
 8003246:	9205      	str	r2, [sp, #20]
 8003248:	9a05      	ldr	r2, [sp, #20]
 800324a:	4a24      	ldr	r2, [pc, #144]	; (80032dc <HAL_GPIO_Init+0x158>)
 800324c:	00a4      	lsls	r4, r4, #2
 800324e:	18a4      	adds	r4, r4, r2
 8003250:	220f      	movs	r2, #15
 8003252:	3502      	adds	r5, #2
 8003254:	401d      	ands	r5, r3
 8003256:	00ad      	lsls	r5, r5, #2
 8003258:	40aa      	lsls	r2, r5
 800325a:	68a6      	ldr	r6, [r4, #8]
 800325c:	4396      	bics	r6, r2
 800325e:	2200      	movs	r2, #0
 8003260:	42b8      	cmp	r0, r7
 8003262:	d00c      	beq.n	800327e <HAL_GPIO_Init+0xfa>
 8003264:	4f1e      	ldr	r7, [pc, #120]	; (80032e0 <HAL_GPIO_Init+0x15c>)
 8003266:	3201      	adds	r2, #1
 8003268:	42b8      	cmp	r0, r7
 800326a:	d008      	beq.n	800327e <HAL_GPIO_Init+0xfa>
 800326c:	4f1d      	ldr	r7, [pc, #116]	; (80032e4 <HAL_GPIO_Init+0x160>)
 800326e:	3201      	adds	r2, #1
 8003270:	42b8      	cmp	r0, r7
 8003272:	d004      	beq.n	800327e <HAL_GPIO_Init+0xfa>
 8003274:	4f1c      	ldr	r7, [pc, #112]	; (80032e8 <HAL_GPIO_Init+0x164>)
 8003276:	3201      	adds	r2, #1
 8003278:	42b8      	cmp	r0, r7
 800327a:	d000      	beq.n	800327e <HAL_GPIO_Init+0xfa>
 800327c:	3202      	adds	r2, #2
 800327e:	40aa      	lsls	r2, r5
 8003280:	4667      	mov	r7, ip
 8003282:	4332      	orrs	r2, r6
 8003284:	60a2      	str	r2, [r4, #8]
 8003286:	4a19      	ldr	r2, [pc, #100]	; (80032ec <HAL_GPIO_Init+0x168>)
 8003288:	9c01      	ldr	r4, [sp, #4]
 800328a:	6896      	ldr	r6, [r2, #8]
 800328c:	9d01      	ldr	r5, [sp, #4]
 800328e:	43e4      	mvns	r4, r4
 8003290:	4335      	orrs	r5, r6
 8003292:	02ff      	lsls	r7, r7, #11
 8003294:	d401      	bmi.n	800329a <HAL_GPIO_Init+0x116>
 8003296:	0035      	movs	r5, r6
 8003298:	4025      	ands	r5, r4
 800329a:	4667      	mov	r7, ip
 800329c:	6095      	str	r5, [r2, #8]
 800329e:	68d6      	ldr	r6, [r2, #12]
 80032a0:	9d01      	ldr	r5, [sp, #4]
 80032a2:	4335      	orrs	r5, r6
 80032a4:	02bf      	lsls	r7, r7, #10
 80032a6:	d401      	bmi.n	80032ac <HAL_GPIO_Init+0x128>
 80032a8:	0035      	movs	r5, r6
 80032aa:	4025      	ands	r5, r4
 80032ac:	4667      	mov	r7, ip
 80032ae:	60d5      	str	r5, [r2, #12]
 80032b0:	6856      	ldr	r6, [r2, #4]
 80032b2:	9d01      	ldr	r5, [sp, #4]
 80032b4:	4335      	orrs	r5, r6
 80032b6:	03bf      	lsls	r7, r7, #14
 80032b8:	d401      	bmi.n	80032be <HAL_GPIO_Init+0x13a>
 80032ba:	0035      	movs	r5, r6
 80032bc:	4025      	ands	r5, r4
 80032be:	4667      	mov	r7, ip
 80032c0:	6055      	str	r5, [r2, #4]
 80032c2:	6815      	ldr	r5, [r2, #0]
 80032c4:	9e01      	ldr	r6, [sp, #4]
 80032c6:	432e      	orrs	r6, r5
 80032c8:	03ff      	lsls	r7, r7, #15
 80032ca:	d401      	bmi.n	80032d0 <HAL_GPIO_Init+0x14c>
 80032cc:	4025      	ands	r5, r4
 80032ce:	002e      	movs	r6, r5
 80032d0:	6016      	str	r6, [r2, #0]
 80032d2:	3301      	adds	r3, #1
 80032d4:	e759      	b.n	800318a <HAL_GPIO_Init+0x6>
 80032d6:	46c0      	nop			; (mov r8, r8)
 80032d8:	40021000 	.word	0x40021000
 80032dc:	40010000 	.word	0x40010000
 80032e0:	48000400 	.word	0x48000400
 80032e4:	48000800 	.word	0x48000800
 80032e8:	48000c00 	.word	0x48000c00
 80032ec:	40010400 	.word	0x40010400

080032f0 <HAL_GPIO_ReadPin>:
 80032f0:	6900      	ldr	r0, [r0, #16]
 80032f2:	4008      	ands	r0, r1
 80032f4:	1e43      	subs	r3, r0, #1
 80032f6:	4198      	sbcs	r0, r3
 80032f8:	b2c0      	uxtb	r0, r0
 80032fa:	4770      	bx	lr

080032fc <HAL_GPIO_WritePin>:
 80032fc:	2a00      	cmp	r2, #0
 80032fe:	d001      	beq.n	8003304 <HAL_GPIO_WritePin+0x8>
 8003300:	6181      	str	r1, [r0, #24]
 8003302:	4770      	bx	lr
 8003304:	6281      	str	r1, [r0, #40]	; 0x28
 8003306:	e7fc      	b.n	8003302 <HAL_GPIO_WritePin+0x6>

08003308 <HAL_TIM_Base_DeInit>:
 8003308:	b570      	push	{r4, r5, r6, lr}
 800330a:	0005      	movs	r5, r0
 800330c:	2302      	movs	r3, #2
 800330e:	353d      	adds	r5, #61	; 0x3d
 8003310:	702b      	strb	r3, [r5, #0]
 8003312:	6803      	ldr	r3, [r0, #0]
 8003314:	4a10      	ldr	r2, [pc, #64]	; (8003358 <HAL_TIM_Base_DeInit+0x50>)
 8003316:	6a19      	ldr	r1, [r3, #32]
 8003318:	0004      	movs	r4, r0
 800331a:	4211      	tst	r1, r2
 800331c:	d107      	bne.n	800332e <HAL_TIM_Base_DeInit+0x26>
 800331e:	6a19      	ldr	r1, [r3, #32]
 8003320:	4a0e      	ldr	r2, [pc, #56]	; (800335c <HAL_TIM_Base_DeInit+0x54>)
 8003322:	4211      	tst	r1, r2
 8003324:	d103      	bne.n	800332e <HAL_TIM_Base_DeInit+0x26>
 8003326:	2101      	movs	r1, #1
 8003328:	681a      	ldr	r2, [r3, #0]
 800332a:	438a      	bics	r2, r1
 800332c:	601a      	str	r2, [r3, #0]
 800332e:	0020      	movs	r0, r4
 8003330:	f7ff fa10 	bl	8002754 <HAL_TIM_Base_MspDeInit>
 8003334:	0023      	movs	r3, r4
 8003336:	2000      	movs	r0, #0
 8003338:	3346      	adds	r3, #70	; 0x46
 800333a:	7018      	strb	r0, [r3, #0]
 800333c:	343c      	adds	r4, #60	; 0x3c
 800333e:	3b08      	subs	r3, #8
 8003340:	7018      	strb	r0, [r3, #0]
 8003342:	7058      	strb	r0, [r3, #1]
 8003344:	7098      	strb	r0, [r3, #2]
 8003346:	70d8      	strb	r0, [r3, #3]
 8003348:	7118      	strb	r0, [r3, #4]
 800334a:	7158      	strb	r0, [r3, #5]
 800334c:	7198      	strb	r0, [r3, #6]
 800334e:	71d8      	strb	r0, [r3, #7]
 8003350:	7028      	strb	r0, [r5, #0]
 8003352:	7020      	strb	r0, [r4, #0]
 8003354:	bd70      	pop	{r4, r5, r6, pc}
 8003356:	46c0      	nop			; (mov r8, r8)
 8003358:	00001111 	.word	0x00001111
 800335c:	00000444 	.word	0x00000444

08003360 <HAL_TIM_Base_Start_IT>:
 8003360:	0002      	movs	r2, r0
 8003362:	0003      	movs	r3, r0
 8003364:	2001      	movs	r0, #1
 8003366:	323d      	adds	r2, #61	; 0x3d
 8003368:	7811      	ldrb	r1, [r2, #0]
 800336a:	4281      	cmp	r1, r0
 800336c:	d115      	bne.n	800339a <HAL_TIM_Base_Start_IT+0x3a>
 800336e:	2102      	movs	r1, #2
 8003370:	7011      	strb	r1, [r2, #0]
 8003372:	681b      	ldr	r3, [r3, #0]
 8003374:	68da      	ldr	r2, [r3, #12]
 8003376:	4302      	orrs	r2, r0
 8003378:	60da      	str	r2, [r3, #12]
 800337a:	4a0b      	ldr	r2, [pc, #44]	; (80033a8 <HAL_TIM_Base_Start_IT+0x48>)
 800337c:	4293      	cmp	r3, r2
 800337e:	d002      	beq.n	8003386 <HAL_TIM_Base_Start_IT+0x26>
 8003380:	4a0a      	ldr	r2, [pc, #40]	; (80033ac <HAL_TIM_Base_Start_IT+0x4c>)
 8003382:	4293      	cmp	r3, r2
 8003384:	d10a      	bne.n	800339c <HAL_TIM_Base_Start_IT+0x3c>
 8003386:	2107      	movs	r1, #7
 8003388:	689a      	ldr	r2, [r3, #8]
 800338a:	2000      	movs	r0, #0
 800338c:	400a      	ands	r2, r1
 800338e:	2a06      	cmp	r2, #6
 8003390:	d003      	beq.n	800339a <HAL_TIM_Base_Start_IT+0x3a>
 8003392:	2201      	movs	r2, #1
 8003394:	6819      	ldr	r1, [r3, #0]
 8003396:	430a      	orrs	r2, r1
 8003398:	601a      	str	r2, [r3, #0]
 800339a:	4770      	bx	lr
 800339c:	681a      	ldr	r2, [r3, #0]
 800339e:	4310      	orrs	r0, r2
 80033a0:	6018      	str	r0, [r3, #0]
 80033a2:	2000      	movs	r0, #0
 80033a4:	e7f9      	b.n	800339a <HAL_TIM_Base_Start_IT+0x3a>
 80033a6:	46c0      	nop			; (mov r8, r8)
 80033a8:	40012c00 	.word	0x40012c00
 80033ac:	40000400 	.word	0x40000400

080033b0 <TIM_Base_SetConfig>:
 80033b0:	4a1c      	ldr	r2, [pc, #112]	; (8003424 <TIM_Base_SetConfig+0x74>)
 80033b2:	b510      	push	{r4, lr}
 80033b4:	6803      	ldr	r3, [r0, #0]
 80033b6:	4290      	cmp	r0, r2
 80033b8:	d002      	beq.n	80033c0 <TIM_Base_SetConfig+0x10>
 80033ba:	4c1b      	ldr	r4, [pc, #108]	; (8003428 <TIM_Base_SetConfig+0x78>)
 80033bc:	42a0      	cmp	r0, r4
 80033be:	d108      	bne.n	80033d2 <TIM_Base_SetConfig+0x22>
 80033c0:	2470      	movs	r4, #112	; 0x70
 80033c2:	43a3      	bics	r3, r4
 80033c4:	684c      	ldr	r4, [r1, #4]
 80033c6:	4323      	orrs	r3, r4
 80033c8:	4290      	cmp	r0, r2
 80033ca:	d00b      	beq.n	80033e4 <TIM_Base_SetConfig+0x34>
 80033cc:	4c16      	ldr	r4, [pc, #88]	; (8003428 <TIM_Base_SetConfig+0x78>)
 80033ce:	42a0      	cmp	r0, r4
 80033d0:	d008      	beq.n	80033e4 <TIM_Base_SetConfig+0x34>
 80033d2:	4c16      	ldr	r4, [pc, #88]	; (800342c <TIM_Base_SetConfig+0x7c>)
 80033d4:	42a0      	cmp	r0, r4
 80033d6:	d005      	beq.n	80033e4 <TIM_Base_SetConfig+0x34>
 80033d8:	4c15      	ldr	r4, [pc, #84]	; (8003430 <TIM_Base_SetConfig+0x80>)
 80033da:	42a0      	cmp	r0, r4
 80033dc:	d002      	beq.n	80033e4 <TIM_Base_SetConfig+0x34>
 80033de:	4c15      	ldr	r4, [pc, #84]	; (8003434 <TIM_Base_SetConfig+0x84>)
 80033e0:	42a0      	cmp	r0, r4
 80033e2:	d103      	bne.n	80033ec <TIM_Base_SetConfig+0x3c>
 80033e4:	4c14      	ldr	r4, [pc, #80]	; (8003438 <TIM_Base_SetConfig+0x88>)
 80033e6:	4023      	ands	r3, r4
 80033e8:	68cc      	ldr	r4, [r1, #12]
 80033ea:	4323      	orrs	r3, r4
 80033ec:	2480      	movs	r4, #128	; 0x80
 80033ee:	43a3      	bics	r3, r4
 80033f0:	694c      	ldr	r4, [r1, #20]
 80033f2:	4323      	orrs	r3, r4
 80033f4:	6003      	str	r3, [r0, #0]
 80033f6:	688b      	ldr	r3, [r1, #8]
 80033f8:	62c3      	str	r3, [r0, #44]	; 0x2c
 80033fa:	680b      	ldr	r3, [r1, #0]
 80033fc:	6283      	str	r3, [r0, #40]	; 0x28
 80033fe:	4290      	cmp	r0, r2
 8003400:	d005      	beq.n	800340e <TIM_Base_SetConfig+0x5e>
 8003402:	4b0b      	ldr	r3, [pc, #44]	; (8003430 <TIM_Base_SetConfig+0x80>)
 8003404:	4298      	cmp	r0, r3
 8003406:	d002      	beq.n	800340e <TIM_Base_SetConfig+0x5e>
 8003408:	4b0a      	ldr	r3, [pc, #40]	; (8003434 <TIM_Base_SetConfig+0x84>)
 800340a:	4298      	cmp	r0, r3
 800340c:	d101      	bne.n	8003412 <TIM_Base_SetConfig+0x62>
 800340e:	690b      	ldr	r3, [r1, #16]
 8003410:	6303      	str	r3, [r0, #48]	; 0x30
 8003412:	2201      	movs	r2, #1
 8003414:	6142      	str	r2, [r0, #20]
 8003416:	6903      	ldr	r3, [r0, #16]
 8003418:	4213      	tst	r3, r2
 800341a:	d002      	beq.n	8003422 <TIM_Base_SetConfig+0x72>
 800341c:	6903      	ldr	r3, [r0, #16]
 800341e:	4393      	bics	r3, r2
 8003420:	6103      	str	r3, [r0, #16]
 8003422:	bd10      	pop	{r4, pc}
 8003424:	40012c00 	.word	0x40012c00
 8003428:	40000400 	.word	0x40000400
 800342c:	40002000 	.word	0x40002000
 8003430:	40014400 	.word	0x40014400
 8003434:	40014800 	.word	0x40014800
 8003438:	fffffcff 	.word	0xfffffcff

0800343c <HAL_TIM_Base_Init>:
 800343c:	b570      	push	{r4, r5, r6, lr}
 800343e:	0004      	movs	r4, r0
 8003440:	2001      	movs	r0, #1
 8003442:	2c00      	cmp	r4, #0
 8003444:	d021      	beq.n	800348a <HAL_TIM_Base_Init+0x4e>
 8003446:	0025      	movs	r5, r4
 8003448:	353d      	adds	r5, #61	; 0x3d
 800344a:	782b      	ldrb	r3, [r5, #0]
 800344c:	b2da      	uxtb	r2, r3
 800344e:	2b00      	cmp	r3, #0
 8003450:	d105      	bne.n	800345e <HAL_TIM_Base_Init+0x22>
 8003452:	0023      	movs	r3, r4
 8003454:	333c      	adds	r3, #60	; 0x3c
 8003456:	0020      	movs	r0, r4
 8003458:	701a      	strb	r2, [r3, #0]
 800345a:	f7ff f955 	bl	8002708 <HAL_TIM_Base_MspInit>
 800345e:	2302      	movs	r3, #2
 8003460:	702b      	strb	r3, [r5, #0]
 8003462:	6820      	ldr	r0, [r4, #0]
 8003464:	1d21      	adds	r1, r4, #4
 8003466:	f7ff ffa3 	bl	80033b0 <TIM_Base_SetConfig>
 800346a:	0022      	movs	r2, r4
 800346c:	2301      	movs	r3, #1
 800346e:	2000      	movs	r0, #0
 8003470:	3246      	adds	r2, #70	; 0x46
 8003472:	7013      	strb	r3, [r2, #0]
 8003474:	3445      	adds	r4, #69	; 0x45
 8003476:	3a08      	subs	r2, #8
 8003478:	7013      	strb	r3, [r2, #0]
 800347a:	7053      	strb	r3, [r2, #1]
 800347c:	7093      	strb	r3, [r2, #2]
 800347e:	70d3      	strb	r3, [r2, #3]
 8003480:	7113      	strb	r3, [r2, #4]
 8003482:	7153      	strb	r3, [r2, #5]
 8003484:	7193      	strb	r3, [r2, #6]
 8003486:	7023      	strb	r3, [r4, #0]
 8003488:	702b      	strb	r3, [r5, #0]
 800348a:	bd70      	pop	{r4, r5, r6, pc}

0800348c <LL_GPIO_Init>:
 800348c:	b5f7      	push	{r0, r1, r2, r4, r5, r6, r7, lr}
 800348e:	2300      	movs	r3, #0
 8003490:	0002      	movs	r2, r0
 8003492:	680c      	ldr	r4, [r1, #0]
 8003494:	9300      	str	r3, [sp, #0]
 8003496:	0020      	movs	r0, r4
 8003498:	9b00      	ldr	r3, [sp, #0]
 800349a:	40d8      	lsrs	r0, r3
 800349c:	d100      	bne.n	80034a0 <LL_GPIO_Init+0x14>
 800349e:	bdfe      	pop	{r1, r2, r3, r4, r5, r6, r7, pc}
 80034a0:	2001      	movs	r0, #1
 80034a2:	9b00      	ldr	r3, [sp, #0]
 80034a4:	4098      	lsls	r0, r3
 80034a6:	0023      	movs	r3, r4
 80034a8:	4003      	ands	r3, r0
 80034aa:	4204      	tst	r4, r0
 80034ac:	d031      	beq.n	8003512 <LL_GPIO_Init+0x86>
 80034ae:	6848      	ldr	r0, [r1, #4]
 80034b0:	2503      	movs	r5, #3
 80034b2:	9001      	str	r0, [sp, #4]
 80034b4:	0018      	movs	r0, r3
 80034b6:	4358      	muls	r0, r3
 80034b8:	4345      	muls	r5, r0
 80034ba:	9e01      	ldr	r6, [sp, #4]
 80034bc:	43ed      	mvns	r5, r5
 80034be:	1e77      	subs	r7, r6, #1
 80034c0:	2f01      	cmp	r7, #1
 80034c2:	d80b      	bhi.n	80034dc <LL_GPIO_Init+0x50>
 80034c4:	688f      	ldr	r7, [r1, #8]
 80034c6:	6896      	ldr	r6, [r2, #8]
 80034c8:	4347      	muls	r7, r0
 80034ca:	402e      	ands	r6, r5
 80034cc:	4337      	orrs	r7, r6
 80034ce:	6097      	str	r7, [r2, #8]
 80034d0:	6857      	ldr	r7, [r2, #4]
 80034d2:	68ce      	ldr	r6, [r1, #12]
 80034d4:	43a7      	bics	r7, r4
 80034d6:	4374      	muls	r4, r6
 80034d8:	433c      	orrs	r4, r7
 80034da:	6054      	str	r4, [r2, #4]
 80034dc:	690c      	ldr	r4, [r1, #16]
 80034de:	68d7      	ldr	r7, [r2, #12]
 80034e0:	4344      	muls	r4, r0
 80034e2:	402f      	ands	r7, r5
 80034e4:	433c      	orrs	r4, r7
 80034e6:	60d4      	str	r4, [r2, #12]
 80034e8:	9c01      	ldr	r4, [sp, #4]
 80034ea:	2c02      	cmp	r4, #2
 80034ec:	d10b      	bne.n	8003506 <LL_GPIO_Init+0x7a>
 80034ee:	694f      	ldr	r7, [r1, #20]
 80034f0:	2bff      	cmp	r3, #255	; 0xff
 80034f2:	d811      	bhi.n	8003518 <LL_GPIO_Init+0x8c>
 80034f4:	0004      	movs	r4, r0
 80034f6:	260f      	movs	r6, #15
 80034f8:	4344      	muls	r4, r0
 80034fa:	4366      	muls	r6, r4
 80034fc:	437c      	muls	r4, r7
 80034fe:	6a13      	ldr	r3, [r2, #32]
 8003500:	43b3      	bics	r3, r6
 8003502:	4323      	orrs	r3, r4
 8003504:	6213      	str	r3, [r2, #32]
 8003506:	9c01      	ldr	r4, [sp, #4]
 8003508:	6813      	ldr	r3, [r2, #0]
 800350a:	4360      	muls	r0, r4
 800350c:	402b      	ands	r3, r5
 800350e:	4303      	orrs	r3, r0
 8003510:	6013      	str	r3, [r2, #0]
 8003512:	9b00      	ldr	r3, [sp, #0]
 8003514:	3301      	adds	r3, #1
 8003516:	e7bc      	b.n	8003492 <LL_GPIO_Init+0x6>
 8003518:	260f      	movs	r6, #15
 800351a:	0a1b      	lsrs	r3, r3, #8
 800351c:	435b      	muls	r3, r3
 800351e:	435b      	muls	r3, r3
 8003520:	435e      	muls	r6, r3
 8003522:	437b      	muls	r3, r7
 8003524:	6a54      	ldr	r4, [r2, #36]	; 0x24
 8003526:	43b4      	bics	r4, r6
 8003528:	431c      	orrs	r4, r3
 800352a:	6254      	str	r4, [r2, #36]	; 0x24
 800352c:	e7eb      	b.n	8003506 <LL_GPIO_Init+0x7a>
	...

08003530 <LL_I2C_DeInit>:
 8003530:	4a08      	ldr	r2, [pc, #32]	; (8003554 <LL_I2C_DeInit+0x24>)
 8003532:	2301      	movs	r3, #1
 8003534:	4290      	cmp	r0, r2
 8003536:	d10a      	bne.n	800354e <LL_I2C_DeInit+0x1e>
 8003538:	2280      	movs	r2, #128	; 0x80
 800353a:	4b07      	ldr	r3, [pc, #28]	; (8003558 <LL_I2C_DeInit+0x28>)
 800353c:	0392      	lsls	r2, r2, #14
 800353e:	6919      	ldr	r1, [r3, #16]
 8003540:	430a      	orrs	r2, r1
 8003542:	611a      	str	r2, [r3, #16]
 8003544:	691a      	ldr	r2, [r3, #16]
 8003546:	4905      	ldr	r1, [pc, #20]	; (800355c <LL_I2C_DeInit+0x2c>)
 8003548:	400a      	ands	r2, r1
 800354a:	611a      	str	r2, [r3, #16]
 800354c:	2300      	movs	r3, #0
 800354e:	0018      	movs	r0, r3
 8003550:	4770      	bx	lr
 8003552:	46c0      	nop			; (mov r8, r8)
 8003554:	40005400 	.word	0x40005400
 8003558:	40021000 	.word	0x40021000
 800355c:	ffdfffff 	.word	0xffdfffff

08003560 <LL_I2C_Init>:
 8003560:	2201      	movs	r2, #1
 8003562:	6803      	ldr	r3, [r0, #0]
 8003564:	b530      	push	{r4, r5, lr}
 8003566:	4393      	bics	r3, r2
 8003568:	6003      	str	r3, [r0, #0]
 800356a:	68cb      	ldr	r3, [r1, #12]
 800356c:	688d      	ldr	r5, [r1, #8]
 800356e:	021b      	lsls	r3, r3, #8
 8003570:	6804      	ldr	r4, [r0, #0]
 8003572:	432b      	orrs	r3, r5
 8003574:	4d14      	ldr	r5, [pc, #80]	; (80035c8 <LL_I2C_Init+0x68>)
 8003576:	402c      	ands	r4, r5
 8003578:	4323      	orrs	r3, r4
 800357a:	6003      	str	r3, [r0, #0]
 800357c:	684b      	ldr	r3, [r1, #4]
 800357e:	4c13      	ldr	r4, [pc, #76]	; (80035cc <LL_I2C_Init+0x6c>)
 8003580:	6103      	str	r3, [r0, #16]
 8003582:	6803      	ldr	r3, [r0, #0]
 8003584:	690d      	ldr	r5, [r1, #16]
 8003586:	431a      	orrs	r2, r3
 8003588:	6002      	str	r2, [r0, #0]
 800358a:	6883      	ldr	r3, [r0, #8]
 800358c:	698a      	ldr	r2, [r1, #24]
 800358e:	4023      	ands	r3, r4
 8003590:	6083      	str	r3, [r0, #8]
 8003592:	6883      	ldr	r3, [r0, #8]
 8003594:	432a      	orrs	r2, r5
 8003596:	0adb      	lsrs	r3, r3, #11
 8003598:	02db      	lsls	r3, r3, #11
 800359a:	431a      	orrs	r2, r3
 800359c:	6082      	str	r2, [r0, #8]
 800359e:	2d00      	cmp	r5, #0
 80035a0:	d004      	beq.n	80035ac <LL_I2C_Init+0x4c>
 80035a2:	2380      	movs	r3, #128	; 0x80
 80035a4:	6882      	ldr	r2, [r0, #8]
 80035a6:	021b      	lsls	r3, r3, #8
 80035a8:	4313      	orrs	r3, r2
 80035aa:	6083      	str	r3, [r0, #8]
 80035ac:	6802      	ldr	r2, [r0, #0]
 80035ae:	4b08      	ldr	r3, [pc, #32]	; (80035d0 <LL_I2C_Init+0x70>)
 80035b0:	401a      	ands	r2, r3
 80035b2:	680b      	ldr	r3, [r1, #0]
 80035b4:	431a      	orrs	r2, r3
 80035b6:	6002      	str	r2, [r0, #0]
 80035b8:	6843      	ldr	r3, [r0, #4]
 80035ba:	694a      	ldr	r2, [r1, #20]
 80035bc:	4023      	ands	r3, r4
 80035be:	4313      	orrs	r3, r2
 80035c0:	6043      	str	r3, [r0, #4]
 80035c2:	2000      	movs	r0, #0
 80035c4:	bd30      	pop	{r4, r5, pc}
 80035c6:	46c0      	nop			; (mov r8, r8)
 80035c8:	ffffe0ff 	.word	0xffffe0ff
 80035cc:	ffff7fff 	.word	0xffff7fff
 80035d0:	ffcfffff 	.word	0xffcfffff

080035d4 <LL_SetSystemCoreClock>:
 80035d4:	4b01      	ldr	r3, [pc, #4]	; (80035dc <LL_SetSystemCoreClock+0x8>)
 80035d6:	6018      	str	r0, [r3, #0]
 80035d8:	4770      	bx	lr
 80035da:	46c0      	nop			; (mov r8, r8)
 80035dc:	20000114 	.word	0x20000114

080035e0 <calloc>:
 80035e0:	b510      	push	{r4, lr}
 80035e2:	4b03      	ldr	r3, [pc, #12]	; (80035f0 <calloc+0x10>)
 80035e4:	000a      	movs	r2, r1
 80035e6:	0001      	movs	r1, r0
 80035e8:	6818      	ldr	r0, [r3, #0]
 80035ea:	f000 f83e 	bl	800366a <_calloc_r>
 80035ee:	bd10      	pop	{r4, pc}
 80035f0:	20000120 	.word	0x20000120

080035f4 <__errno>:
 80035f4:	4b01      	ldr	r3, [pc, #4]	; (80035fc <__errno+0x8>)
 80035f6:	6818      	ldr	r0, [r3, #0]
 80035f8:	4770      	bx	lr
 80035fa:	46c0      	nop			; (mov r8, r8)
 80035fc:	20000120 	.word	0x20000120

08003600 <__libc_init_array>:
 8003600:	b570      	push	{r4, r5, r6, lr}
 8003602:	2600      	movs	r6, #0
 8003604:	4d0c      	ldr	r5, [pc, #48]	; (8003638 <__libc_init_array+0x38>)
 8003606:	4c0d      	ldr	r4, [pc, #52]	; (800363c <__libc_init_array+0x3c>)
 8003608:	1b64      	subs	r4, r4, r5
 800360a:	10a4      	asrs	r4, r4, #2
 800360c:	42a6      	cmp	r6, r4
 800360e:	d109      	bne.n	8003624 <__libc_init_array+0x24>
 8003610:	2600      	movs	r6, #0
 8003612:	f000 f913 	bl	800383c <_init>
 8003616:	4d0a      	ldr	r5, [pc, #40]	; (8003640 <__libc_init_array+0x40>)
 8003618:	4c0a      	ldr	r4, [pc, #40]	; (8003644 <__libc_init_array+0x44>)
 800361a:	1b64      	subs	r4, r4, r5
 800361c:	10a4      	asrs	r4, r4, #2
 800361e:	42a6      	cmp	r6, r4
 8003620:	d105      	bne.n	800362e <__libc_init_array+0x2e>
 8003622:	bd70      	pop	{r4, r5, r6, pc}
 8003624:	00b3      	lsls	r3, r6, #2
 8003626:	58eb      	ldr	r3, [r5, r3]
 8003628:	4798      	blx	r3
 800362a:	3601      	adds	r6, #1
 800362c:	e7ee      	b.n	800360c <__libc_init_array+0xc>
 800362e:	00b3      	lsls	r3, r6, #2
 8003630:	58eb      	ldr	r3, [r5, r3]
 8003632:	4798      	blx	r3
 8003634:	3601      	adds	r6, #1
 8003636:	e7f2      	b.n	800361e <__libc_init_array+0x1e>
 8003638:	08003854 	.word	0x08003854
 800363c:	08003854 	.word	0x08003854
 8003640:	08003854 	.word	0x08003854
 8003644:	08003858 	.word	0x08003858

08003648 <memcpy>:
 8003648:	2300      	movs	r3, #0
 800364a:	b510      	push	{r4, lr}
 800364c:	429a      	cmp	r2, r3
 800364e:	d100      	bne.n	8003652 <memcpy+0xa>
 8003650:	bd10      	pop	{r4, pc}
 8003652:	5ccc      	ldrb	r4, [r1, r3]
 8003654:	54c4      	strb	r4, [r0, r3]
 8003656:	3301      	adds	r3, #1
 8003658:	e7f8      	b.n	800364c <memcpy+0x4>

0800365a <memset>:
 800365a:	0003      	movs	r3, r0
 800365c:	1882      	adds	r2, r0, r2
 800365e:	4293      	cmp	r3, r2
 8003660:	d100      	bne.n	8003664 <memset+0xa>
 8003662:	4770      	bx	lr
 8003664:	7019      	strb	r1, [r3, #0]
 8003666:	3301      	adds	r3, #1
 8003668:	e7f9      	b.n	800365e <memset+0x4>

0800366a <_calloc_r>:
 800366a:	b570      	push	{r4, r5, r6, lr}
 800366c:	0c13      	lsrs	r3, r2, #16
 800366e:	0c0d      	lsrs	r5, r1, #16
 8003670:	d11e      	bne.n	80036b0 <_calloc_r+0x46>
 8003672:	2b00      	cmp	r3, #0
 8003674:	d10c      	bne.n	8003690 <_calloc_r+0x26>
 8003676:	b289      	uxth	r1, r1
 8003678:	b294      	uxth	r4, r2
 800367a:	434c      	muls	r4, r1
 800367c:	0021      	movs	r1, r4
 800367e:	f000 f843 	bl	8003708 <_malloc_r>
 8003682:	1e05      	subs	r5, r0, #0
 8003684:	d01b      	beq.n	80036be <_calloc_r+0x54>
 8003686:	0022      	movs	r2, r4
 8003688:	2100      	movs	r1, #0
 800368a:	f7ff ffe6 	bl	800365a <memset>
 800368e:	e016      	b.n	80036be <_calloc_r+0x54>
 8003690:	1c1d      	adds	r5, r3, #0
 8003692:	1c0b      	adds	r3, r1, #0
 8003694:	b292      	uxth	r2, r2
 8003696:	b289      	uxth	r1, r1
 8003698:	b29c      	uxth	r4, r3
 800369a:	4351      	muls	r1, r2
 800369c:	b2ab      	uxth	r3, r5
 800369e:	4363      	muls	r3, r4
 80036a0:	0c0c      	lsrs	r4, r1, #16
 80036a2:	191c      	adds	r4, r3, r4
 80036a4:	0c22      	lsrs	r2, r4, #16
 80036a6:	d107      	bne.n	80036b8 <_calloc_r+0x4e>
 80036a8:	0424      	lsls	r4, r4, #16
 80036aa:	b289      	uxth	r1, r1
 80036ac:	430c      	orrs	r4, r1
 80036ae:	e7e5      	b.n	800367c <_calloc_r+0x12>
 80036b0:	2b00      	cmp	r3, #0
 80036b2:	d101      	bne.n	80036b8 <_calloc_r+0x4e>
 80036b4:	1c13      	adds	r3, r2, #0
 80036b6:	e7ed      	b.n	8003694 <_calloc_r+0x2a>
 80036b8:	230c      	movs	r3, #12
 80036ba:	2500      	movs	r5, #0
 80036bc:	6003      	str	r3, [r0, #0]
 80036be:	0028      	movs	r0, r5
 80036c0:	bd70      	pop	{r4, r5, r6, pc}
	...

080036c4 <sbrk_aligned>:
 80036c4:	b570      	push	{r4, r5, r6, lr}
 80036c6:	4e0f      	ldr	r6, [pc, #60]	; (8003704 <sbrk_aligned+0x40>)
 80036c8:	000d      	movs	r5, r1
 80036ca:	6831      	ldr	r1, [r6, #0]
 80036cc:	0004      	movs	r4, r0
 80036ce:	2900      	cmp	r1, #0
 80036d0:	d102      	bne.n	80036d8 <sbrk_aligned+0x14>
 80036d2:	f000 f88f 	bl	80037f4 <_sbrk_r>
 80036d6:	6030      	str	r0, [r6, #0]
 80036d8:	0029      	movs	r1, r5
 80036da:	0020      	movs	r0, r4
 80036dc:	f000 f88a 	bl	80037f4 <_sbrk_r>
 80036e0:	1c43      	adds	r3, r0, #1
 80036e2:	d00a      	beq.n	80036fa <sbrk_aligned+0x36>
 80036e4:	2303      	movs	r3, #3
 80036e6:	1cc5      	adds	r5, r0, #3
 80036e8:	439d      	bics	r5, r3
 80036ea:	42a8      	cmp	r0, r5
 80036ec:	d007      	beq.n	80036fe <sbrk_aligned+0x3a>
 80036ee:	1a29      	subs	r1, r5, r0
 80036f0:	0020      	movs	r0, r4
 80036f2:	f000 f87f 	bl	80037f4 <_sbrk_r>
 80036f6:	1c43      	adds	r3, r0, #1
 80036f8:	d101      	bne.n	80036fe <sbrk_aligned+0x3a>
 80036fa:	2501      	movs	r5, #1
 80036fc:	426d      	negs	r5, r5
 80036fe:	0028      	movs	r0, r5
 8003700:	bd70      	pop	{r4, r5, r6, pc}
 8003702:	46c0      	nop			; (mov r8, r8)
 8003704:	2000080c 	.word	0x2000080c

08003708 <_malloc_r>:
 8003708:	b5f7      	push	{r0, r1, r2, r4, r5, r6, r7, lr}
 800370a:	2203      	movs	r2, #3
 800370c:	1ccb      	adds	r3, r1, #3
 800370e:	4393      	bics	r3, r2
 8003710:	3308      	adds	r3, #8
 8003712:	0006      	movs	r6, r0
 8003714:	001f      	movs	r7, r3
 8003716:	2b0c      	cmp	r3, #12
 8003718:	d232      	bcs.n	8003780 <_malloc_r+0x78>
 800371a:	270c      	movs	r7, #12
 800371c:	42b9      	cmp	r1, r7
 800371e:	d831      	bhi.n	8003784 <_malloc_r+0x7c>
 8003720:	0030      	movs	r0, r6
 8003722:	f000 f879 	bl	8003818 <__malloc_lock>
 8003726:	4d32      	ldr	r5, [pc, #200]	; (80037f0 <_malloc_r+0xe8>)
 8003728:	682b      	ldr	r3, [r5, #0]
 800372a:	001c      	movs	r4, r3
 800372c:	2c00      	cmp	r4, #0
 800372e:	d12e      	bne.n	800378e <_malloc_r+0x86>
 8003730:	0039      	movs	r1, r7
 8003732:	0030      	movs	r0, r6
 8003734:	f7ff ffc6 	bl	80036c4 <sbrk_aligned>
 8003738:	0004      	movs	r4, r0
 800373a:	1c43      	adds	r3, r0, #1
 800373c:	d11e      	bne.n	800377c <_malloc_r+0x74>
 800373e:	682c      	ldr	r4, [r5, #0]
 8003740:	0025      	movs	r5, r4
 8003742:	2d00      	cmp	r5, #0
 8003744:	d14a      	bne.n	80037dc <_malloc_r+0xd4>
 8003746:	6823      	ldr	r3, [r4, #0]
 8003748:	0029      	movs	r1, r5
 800374a:	18e3      	adds	r3, r4, r3
 800374c:	0030      	movs	r0, r6
 800374e:	9301      	str	r3, [sp, #4]
 8003750:	f000 f850 	bl	80037f4 <_sbrk_r>
 8003754:	9b01      	ldr	r3, [sp, #4]
 8003756:	4283      	cmp	r3, r0
 8003758:	d143      	bne.n	80037e2 <_malloc_r+0xda>
 800375a:	6823      	ldr	r3, [r4, #0]
 800375c:	3703      	adds	r7, #3
 800375e:	1aff      	subs	r7, r7, r3
 8003760:	2303      	movs	r3, #3
 8003762:	439f      	bics	r7, r3
 8003764:	3708      	adds	r7, #8
 8003766:	2f0c      	cmp	r7, #12
 8003768:	d200      	bcs.n	800376c <_malloc_r+0x64>
 800376a:	270c      	movs	r7, #12
 800376c:	0039      	movs	r1, r7
 800376e:	0030      	movs	r0, r6
 8003770:	f7ff ffa8 	bl	80036c4 <sbrk_aligned>
 8003774:	1c43      	adds	r3, r0, #1
 8003776:	d034      	beq.n	80037e2 <_malloc_r+0xda>
 8003778:	6823      	ldr	r3, [r4, #0]
 800377a:	19df      	adds	r7, r3, r7
 800377c:	6027      	str	r7, [r4, #0]
 800377e:	e013      	b.n	80037a8 <_malloc_r+0xa0>
 8003780:	2b00      	cmp	r3, #0
 8003782:	dacb      	bge.n	800371c <_malloc_r+0x14>
 8003784:	230c      	movs	r3, #12
 8003786:	2500      	movs	r5, #0
 8003788:	6033      	str	r3, [r6, #0]
 800378a:	0028      	movs	r0, r5
 800378c:	bdfe      	pop	{r1, r2, r3, r4, r5, r6, r7, pc}
 800378e:	6822      	ldr	r2, [r4, #0]
 8003790:	1bd1      	subs	r1, r2, r7
 8003792:	d420      	bmi.n	80037d6 <_malloc_r+0xce>
 8003794:	290b      	cmp	r1, #11
 8003796:	d917      	bls.n	80037c8 <_malloc_r+0xc0>
 8003798:	19e2      	adds	r2, r4, r7
 800379a:	6027      	str	r7, [r4, #0]
 800379c:	42a3      	cmp	r3, r4
 800379e:	d111      	bne.n	80037c4 <_malloc_r+0xbc>
 80037a0:	602a      	str	r2, [r5, #0]
 80037a2:	6863      	ldr	r3, [r4, #4]
 80037a4:	6011      	str	r1, [r2, #0]
 80037a6:	6053      	str	r3, [r2, #4]
 80037a8:	0030      	movs	r0, r6
 80037aa:	0025      	movs	r5, r4
 80037ac:	f000 f83c 	bl	8003828 <__malloc_unlock>
 80037b0:	2207      	movs	r2, #7
 80037b2:	350b      	adds	r5, #11
 80037b4:	1d23      	adds	r3, r4, #4
 80037b6:	4395      	bics	r5, r2
 80037b8:	1aea      	subs	r2, r5, r3
 80037ba:	429d      	cmp	r5, r3
 80037bc:	d0e5      	beq.n	800378a <_malloc_r+0x82>
 80037be:	1b5b      	subs	r3, r3, r5
 80037c0:	50a3      	str	r3, [r4, r2]
 80037c2:	e7e2      	b.n	800378a <_malloc_r+0x82>
 80037c4:	605a      	str	r2, [r3, #4]
 80037c6:	e7ec      	b.n	80037a2 <_malloc_r+0x9a>
 80037c8:	6862      	ldr	r2, [r4, #4]
 80037ca:	42a3      	cmp	r3, r4
 80037cc:	d101      	bne.n	80037d2 <_malloc_r+0xca>
 80037ce:	602a      	str	r2, [r5, #0]
 80037d0:	e7ea      	b.n	80037a8 <_malloc_r+0xa0>
 80037d2:	605a      	str	r2, [r3, #4]
 80037d4:	e7e8      	b.n	80037a8 <_malloc_r+0xa0>
 80037d6:	0023      	movs	r3, r4
 80037d8:	6864      	ldr	r4, [r4, #4]
 80037da:	e7a7      	b.n	800372c <_malloc_r+0x24>
 80037dc:	002c      	movs	r4, r5
 80037de:	686d      	ldr	r5, [r5, #4]
 80037e0:	e7af      	b.n	8003742 <_malloc_r+0x3a>
 80037e2:	230c      	movs	r3, #12
 80037e4:	0030      	movs	r0, r6
 80037e6:	6033      	str	r3, [r6, #0]
 80037e8:	f000 f81e 	bl	8003828 <__malloc_unlock>
 80037ec:	e7cd      	b.n	800378a <_malloc_r+0x82>
 80037ee:	46c0      	nop			; (mov r8, r8)
 80037f0:	20000808 	.word	0x20000808

080037f4 <_sbrk_r>:
 80037f4:	2300      	movs	r3, #0
 80037f6:	b570      	push	{r4, r5, r6, lr}
 80037f8:	4d06      	ldr	r5, [pc, #24]	; (8003814 <_sbrk_r+0x20>)
 80037fa:	0004      	movs	r4, r0
 80037fc:	0008      	movs	r0, r1
 80037fe:	602b      	str	r3, [r5, #0]
 8003800:	f7fe ff2c 	bl	800265c <_sbrk>
 8003804:	1c43      	adds	r3, r0, #1
 8003806:	d103      	bne.n	8003810 <_sbrk_r+0x1c>
 8003808:	682b      	ldr	r3, [r5, #0]
 800380a:	2b00      	cmp	r3, #0
 800380c:	d000      	beq.n	8003810 <_sbrk_r+0x1c>
 800380e:	6023      	str	r3, [r4, #0]
 8003810:	bd70      	pop	{r4, r5, r6, pc}
 8003812:	46c0      	nop			; (mov r8, r8)
 8003814:	20000810 	.word	0x20000810

08003818 <__malloc_lock>:
 8003818:	b510      	push	{r4, lr}
 800381a:	4802      	ldr	r0, [pc, #8]	; (8003824 <__malloc_lock+0xc>)
 800381c:	f000 f80c 	bl	8003838 <__retarget_lock_acquire_recursive>
 8003820:	bd10      	pop	{r4, pc}
 8003822:	46c0      	nop			; (mov r8, r8)
 8003824:	20000814 	.word	0x20000814

08003828 <__malloc_unlock>:
 8003828:	b510      	push	{r4, lr}
 800382a:	4802      	ldr	r0, [pc, #8]	; (8003834 <__malloc_unlock+0xc>)
 800382c:	f000 f805 	bl	800383a <__retarget_lock_release_recursive>
 8003830:	bd10      	pop	{r4, pc}
 8003832:	46c0      	nop			; (mov r8, r8)
 8003834:	20000814 	.word	0x20000814

08003838 <__retarget_lock_acquire_recursive>:
 8003838:	4770      	bx	lr

0800383a <__retarget_lock_release_recursive>:
 800383a:	4770      	bx	lr

0800383c <_init>:
 800383c:	b5f8      	push	{r3, r4, r5, r6, r7, lr}
 800383e:	46c0      	nop			; (mov r8, r8)
 8003840:	bcf8      	pop	{r3, r4, r5, r6, r7}
 8003842:	bc08      	pop	{r3}
 8003844:	469e      	mov	lr, r3
 8003846:	4770      	bx	lr

08003848 <_fini>:
 8003848:	b5f8      	push	{r3, r4, r5, r6, r7, lr}
 800384a:	46c0      	nop			; (mov r8, r8)
 800384c:	bcf8      	pop	{r3, r4, r5, r6, r7}
 800384e:	bc08      	pop	{r3}
 8003850:	469e      	mov	lr, r3
 8003852:	4770      	bx	lr
